Component: ARM Compiler 5.06 update 1 (build 61) Tool: armlink [4d35a8]

==============================================================================

Section Cross References

    main.o(.text) refers to misc.o(.text) for NVIC_PriorityGroupConfig
    main.o(.text) refers to delay.o(.text) for delay_init
    main.o(.text) refers to key.o(.text) for KEY_Init
    main.o(.text) refers to led.o(.text) for LED_Init
    main.o(.text) refers to oled.o(.text) for OLED_Init
    main.o(.text) refers to xunji.o(.text) for XUNJI_Front_GPIO_Init
    main.o(.text) refers to usart3dma.o(.text) for USART3_Init
    main.o(.text) refers to mpu9250.o(.text) for MPU9250_Init
    main.o(.text) refers to inv_mpu.o(.text) for mpu_dmp_init
    main.o(.text) refers to nrf24l01.o(.text) for NRF24L01_Init
    main.o(.text) refers to motor.o(.text) for MOTO_GPIO_Init
    main.o(.text) refers to pwm.o(.text) for TIM1_Pwm_Init
    main.o(.text) refers to encoder.o(.text) for TIM2_Encoder_Init
    main.o(.text) refers to usart4dma.o(.text) for USART4_Init
    main.o(.text) refers to usart2dma.o(.text) for USART2_Init
    main.o(.text) refers to pid.o(.text) for PID_Init
    main.o(.text) refers to timer.o(.text) for TIM7_Cnt_Init
    main.o(.text) refers to pid.o(.bss) for PID_weizhi
    main.o(.text) refers to control.o(.data) for start_flag
    main.o(.text) refers to oled.o(.data) for task_set
    main.o(.text) refers to usart4dma.o(.bss) for num_4
    main.o(.text) refers to main.o(.data) for num_site
    main.o(.text) refers to usart2dma.o(.bss) for num
    main.o(.text) refers to stm32f4xx_tim.o(.text) for TIM_Cmd
    system_stm32f4xx.o(.text) refers to system_stm32f4xx.o(.data) for SystemCoreClock
    led.o(.text) refers to stm32f4xx_rcc.o(.text) for RCC_AHB1PeriphClockCmd
    led.o(.text) refers to stm32f4xx_gpio.o(.text) for GPIO_Init
    key.o(.text) refers to stm32f4xx_gpio.o(.text) for GPIO_ReadInputDataBit
    key.o(.text) refers to delay.o(.text) for delay_ms
    key.o(.text) refers to oled.o(.text) for OLED_ShowCHinese
    key.o(.text) refers to key.o(.data) for key_up
    key.o(.text) refers to usart2dma.o(.data) for Res_2
    key.o(.text) refers to stm32f4xx_rcc.o(.text) for RCC_AHB1PeriphClockCmd
    key.o(.text) refers to main.o(.data) for key
    mpu9250.o(.text) refers to mpuiic.o(.text) for IIC_Start
    mpu9250.o(.text) refers to delay.o(.text) for delay_ms
    mpu9250.o(.text) refers to dflti.o(.text) for __aeabi_i2d
    mpu9250.o(.text) refers to ddiv.o(.text) for __aeabi_ddiv
    mpu9250.o(.text) refers to dadd.o(.text) for __aeabi_dadd
    mpu9250.o(.text) refers to d2f.o(.text) for __aeabi_d2f
    mpuiic.o(.text) refers to stm32f4xx_rcc.o(.text) for RCC_AHB1PeriphClockCmd
    mpuiic.o(.text) refers to stm32f4xx_gpio.o(.text) for GPIO_Init
    mpuiic.o(.text) refers to delay.o(.text) for delay_us
    oled.o(.text) refers to oled.o(.bss) for OLED_GRAM
    oled.o(.text) refers to oled.o(.constdata) for asc2_1206
    oled.o(.text) refers to stm32f4xx_rcc.o(.text) for RCC_AHB1PeriphClockCmd
    oled.o(.text) refers to stm32f4xx_gpio.o(.text) for GPIO_Init
    oled.o(.text) refers to key.o(.text) for KEY_Scan
    oled.o(.text) refers to delay.o(.text) for delay_ms
    oled.o(.text) refers to oled.o(.data) for Chinese
    oled.o(.text) refers to main.o(.data) for key
    control.o(.text) refers to xunji.o(.text) for Read_Front_xunji_Date
    control.o(.text) refers to stm32f4xx_gpio.o(.text) for GPIO_ReadInputDataBit
    control.o(.text) refers to stm32f4xx_tim.o(.text) for TIM_GetITStatus
    control.o(.text) refers to motor.o(.text) for MotorALL_Ctrl
    control.o(.text) refers to pid.o(.text) for PID_Control4
    control.o(.text) refers to control.o(.data) for F_SITE
    control.o(.text) refers to encoder.o(.data) for Encoder_Fabs_L1
    control.o(.text) refers to pid.o(.bss) for PID_velocity
    control.o(.text) refers to oled.o(.text) for OLED_Show3FNum
    control.o(.text) refers to inv_mpu.o(.text) for mpu_mpl_get_data
    control.o(.text) refers to encoder.o(.text) for Encoder_Fabs
    control.o(.text) refers to nrf24l01.o(.text) for NRF24L01_TxPacket
    control.o(.text) refers to main.o(.data) for mode
    encoder.o(.text) refers to stm32f4xx_rcc.o(.text) for RCC_APB1PeriphClockCmd
    encoder.o(.text) refers to stm32f4xx_tim.o(.text) for TIM_TimeBaseInit
    encoder.o(.text) refers to misc.o(.text) for NVIC_Init
    encoder.o(.text) refers to stm32f4xx_gpio.o(.text) for GPIO_PinAFConfig
    encoder.o(.text) refers to encoder.o(.bss) for Encoder
    encoder.o(.text) refers to encoder.o(.data) for Encoder_Length_L1
    xunji.o(.text) refers to stm32f4xx_rcc.o(.text) for RCC_AHB1PeriphClockCmd
    xunji.o(.text) refers to stm32f4xx_gpio.o(.text) for GPIO_Init
    motor.o(.text) refers to stm32f4xx_rcc.o(.text) for RCC_AHB1PeriphClockCmd
    motor.o(.text) refers to stm32f4xx_gpio.o(.text) for GPIO_Init
    motor.o(.text) refers to stm32f4xx_tim.o(.text) for TIM_SetCompare1
    motor.o(.text) refers to dflti.o(.text) for __aeabi_i2d
    motor.o(.text) refers to dmul.o(.text) for __aeabi_dmul
    motor.o(.text) refers to d2f.o(.text) for __aeabi_d2f
    motor.o(.text) refers to motor.o(.data) for pp
    motor.o(.text) refers to control.o(.data) for yaw
    motor.o(.text) refers to pid.o(.bss) for PID_weizhi
    pid.o(.text) refers to control.o(.text) for Limit_Pwm_float
    pwm.o(.text) refers to stm32f4xx_rcc.o(.text) for RCC_APB1PeriphClockCmd
    pwm.o(.text) refers to stm32f4xx_gpio.o(.text) for GPIO_PinAFConfig
    pwm.o(.text) refers to stm32f4xx_tim.o(.text) for TIM_TimeBaseInit
    pwm.o(.text) refers to misc.o(.text) for NVIC_Init
    timer.o(.text) refers to stm32f4xx_rcc.o(.text) for RCC_APB1PeriphClockCmd
    timer.o(.text) refers to stm32f4xx_tim.o(.text) for TIM_TimeBaseInit
    timer.o(.text) refers to misc.o(.text) for NVIC_Init
    sonic.o(.text) refers to stm32f4xx_rcc.o(.text) for RCC_AHB1PeriphClockCmd
    sonic.o(.text) refers to stm32f4xx_gpio.o(.text) for GPIO_Init
    sonic.o(.text) refers to ldiv.o(.text) for __aeabi_ldivmod
    sonic.o(.text) refers to filter.o(.text) for Enaverage_Filter
    sonic.o(.text) refers to stm32f4xx_tim.o(.text) for TIM_TimeBaseInit
    sonic.o(.text) refers to misc.o(.text) for NVIC_Init
    sonic.o(.text) refers to delay.o(.text) for delay_us
    sonic.o(.text) refers to f2d.o(.text) for __aeabi_f2d
    sonic.o(.text) refers to fabs.o(i.__hardfp_fabs) for __hardfp_fabs
    sonic.o(.text) refers to d2f.o(.text) for __aeabi_d2f
    sonic.o(.text) refers to sonic.o(.data) for TIM5CH4_CAPTURE_STA
    sonic.o(.text) refers to sonic.o(.bss) for Sonic_Dis
    sonic.o(.text) refers to atan.o(i.__hardfp_atan) for __hardfp_atan
    sonic.o(.text) refers to sin.o(i.__hardfp_sin) for __hardfp_sin
    sonic.o(.text) refers to dmul.o(.text) for __aeabi_dmul
    sonic.o(.text) refers to oled.o(.text) for OLED_ShowNum
    filter.o(.text) refers to malloc.o(i.malloc) for malloc
    filter.o(.text) refers to malloc.o(i.free) for free
    filter.o(.text) refers to filter.o(.data) for min
    exti.o(.text) refers to xunji.o(.text) for XUNJI_Front_GPIO_Init
    exti.o(.text) refers to stm32f4xx_rcc.o(.text) for RCC_APB2PeriphClockCmd
    exti.o(.text) refers to stm32f4xx_syscfg.o(.text) for SYSCFG_EXTILineConfig
    exti.o(.text) refers to stm32f4xx_exti.o(.text) for EXTI_Init
    exti.o(.text) refers to misc.o(.text) for NVIC_Init
    exti.o(.text) refers to delay.o(.text) for delay_ms
    exti.o(.text) refers to exti.o(.data) for Left_cishu
    exti.o(.text) refers to stm32f4xx_tim.o(.text) for TIM_Cmd
    exti.o(.text) refers to timer.o(.data) for zd_site
    exti.o(.text) refers to stm32f4xx_gpio.o(.text) for GPIO_SetBits
    duoji.o(.text) refers to stm32f4xx_tim.o(.text) for TIM_SetCompare1
    duoji.o(.text) refers to duoji.o(.data) for Steer_PWM
    bujin.o(.text) refers to stm32f4xx_rcc.o(.text) for RCC_AHB1PeriphClockCmd
    bujin.o(.text) refers to stm32f4xx_gpio.o(.text) for GPIO_Init
    bujin.o(.text) refers to dflti.o(.text) for __aeabi_i2d
    bujin.o(.text) refers to ddiv.o(.text) for __aeabi_ddiv
    bujin.o(.text) refers to dfixi.o(.text) for __aeabi_d2iz
    bujin.o(.text) refers to stm32f4xx_tim.o(.text) for TIM_TimeBaseInit
    bujin.o(.text) refers to misc.o(.text) for NVIC_Init
    bujin.o(.text) refers to bujin.o(.data) for countB
    usartdma.o(.text) refers to stm32f4xx_rcc.o(.text) for RCC_APB2PeriphClockCmd
    usartdma.o(.text) refers to misc.o(.text) for NVIC_Init
    usartdma.o(.text) refers to stm32f4xx_dma.o(.text) for DMA_DeInit
    usartdma.o(.text) refers to stm32f4xx_usart.o(.text) for USART_DMACmd
    usartdma.o(.text) refers to stm32f4xx_gpio.o(.text) for GPIO_PinAFConfig
    usartdma.o(.text) refers to oled.o(.text) for OLED_ShowNum
    usartdma.o(.text) refers to usartdma.o(.bss) for send_data_u1
    usartdma.o(.text) refers to usartdma.o(.data) for UART1_Rec_Len
    usart2dma.o(.text) refers to stm32f4xx_rcc.o(.text) for RCC_APB1PeriphClockCmd
    usart2dma.o(.text) refers to misc.o(.text) for NVIC_Init
    usart2dma.o(.text) refers to stm32f4xx_dma.o(.text) for DMA_DeInit
    usart2dma.o(.text) refers to stm32f4xx_usart.o(.text) for USART_DMACmd
    usart2dma.o(.text) refers to stm32f4xx_gpio.o(.text) for GPIO_PinAFConfig
    usart2dma.o(.text) refers to oled.o(.text) for OLED_ShowNum
    usart2dma.o(.text) refers to delay.o(.text) for delay_ms
    usart2dma.o(.text) refers to usart2dma.o(.bss) for send_data_u2
    usart2dma.o(.text) refers to usart2dma.o(.data) for Res_2
    usart2dma.o(.text) refers to main.o(.data) for num_site
    usart3dma.o(.text) refers to stm32f4xx_rcc.o(.text) for RCC_AHB1PeriphClockCmd
    usart3dma.o(.text) refers to stm32f4xx_gpio.o(.text) for GPIO_PinAFConfig
    usart3dma.o(.text) refers to stm32f4xx_usart.o(.text) for USART_Init
    usart3dma.o(.text) refers to misc.o(.text) for NVIC_Init
    usart3dma.o(.text) refers to stm32f4xx_dma.o(.text) for DMA_ClearFlag
    usart3dma.o(.text) refers to oled.o(.text) for OLED_ShowNum
    usart3dma.o(.text) refers to usart3dma.o(.data) for Res_3
    usart3dma.o(.text) refers to usart3dma.o(.bss) for num_3
    usart4dma.o(.text) refers to stm32f4xx_rcc.o(.text) for RCC_APB1PeriphClockCmd
    usart4dma.o(.text) refers to misc.o(.text) for NVIC_Init
    usart4dma.o(.text) refers to stm32f4xx_dma.o(.text) for DMA_DeInit
    usart4dma.o(.text) refers to stm32f4xx_usart.o(.text) for USART_DMACmd
    usart4dma.o(.text) refers to stm32f4xx_gpio.o(.text) for GPIO_PinAFConfig
    usart4dma.o(.text) refers to oled.o(.text) for OLED_ShowNum
    usart4dma.o(.text) refers to usart4dma.o(.bss) for DataScope_OutPut_Buffer
    usart4dma.o(.text) refers to usart4dma.o(.data) for Res_4
    usart4dma.o(.text) refers to main.o(.data) for num_site
    adc.o(.text) refers to stm32f4xx_rcc.o(.text) for RCC_AHB1PeriphClockCmd
    adc.o(.text) refers to stm32f4xx_gpio.o(.text) for GPIO_Init
    adc.o(.text) refers to stm32f4xx_adc.o(.text) for ADC_CommonInit
    adc.o(.text) refers to delay.o(.text) for delay_ms
    adc.o(.text) refers to dfltui.o(.text) for __aeabi_ui2d
    adc.o(.text) refers to dmul.o(.text) for __aeabi_dmul
    adc.o(.text) refers to d2f.o(.text) for __aeabi_d2f
    adc.o(.text) refers to filter.o(.text) for meanFilter
    adc.o(.text) refers to adc.o(.bss) for ADCStruct
    adc.o(.text) refers to adc.o(.data) for power_vol
    nrf24l01.o(.text) refers to spi.o(.text) for NRF_SPI3_ReadWriteByte
    nrf24l01.o(.text) refers to stm32f4xx_rcc.o(.text) for RCC_AHB1PeriphClockCmd
    nrf24l01.o(.text) refers to stm32f4xx_gpio.o(.text) for GPIO_Init
    nrf24l01.o(.text) refers to oled.o(.text) for OLED_ShowString
    nrf24l01.o(.text) refers to key.o(.text) for KEY_Scan
    nrf24l01.o(.text) refers to delay.o(.text) for delay_ms
    nrf24l01.o(.text) refers to nrf24l01.o(.constdata) for RX_ADDRESS
    nrf24l01.o(.text) refers to nrf24l01.o(.data) for Rece_Data
    nrf24l01.o(.text) refers to nrf24l01.o(.bss) for tmp_buf
    nrf24l01.o(.text) refers to memseta.o(.text) for __aeabi_memclr4
    spi.o(.text) refers to stm32f4xx_rcc.o(.text) for RCC_AHB1PeriphClockCmd
    spi.o(.text) refers to stm32f4xx_gpio.o(.text) for GPIO_Init
    spi.o(.text) refers to stm32f4xx_spi.o(.text) for SPI_Init
    delay.o(.text) refers to misc.o(.text) for SysTick_CLKSourceConfig
    delay.o(.text) refers to delay.o(.data) for fac_us
    usart.o(.text) refers to stm32f4xx_rcc.o(.text) for RCC_AHB1PeriphClockCmd
    usart.o(.text) refers to stm32f4xx_gpio.o(.text) for GPIO_PinAFConfig
    usart.o(.text) refers to stm32f4xx_usart.o(.text) for USART_Init
    usart.o(.text) refers to misc.o(.text) for NVIC_Init
    startup_stm32f40_41xxx.o(RESET) refers to startup_stm32f40_41xxx.o(STACK) for __initial_sp
    startup_stm32f40_41xxx.o(RESET) refers to startup_stm32f40_41xxx.o(.text) for Reset_Handler
    startup_stm32f40_41xxx.o(RESET) refers to stm32f4xx_it.o(.text) for NMI_Handler
    startup_stm32f40_41xxx.o(RESET) refers to exti.o(.text) for EXTI0_IRQHandler
    startup_stm32f40_41xxx.o(RESET) refers to usart3dma.o(.text) for DMA1_Stream3_IRQHandler
    startup_stm32f40_41xxx.o(RESET) refers to usart4dma.o(.text) for DMA1_Stream4_IRQHandler
    startup_stm32f40_41xxx.o(RESET) refers to usart2dma.o(.text) for DMA1_Stream6_IRQHandler
    startup_stm32f40_41xxx.o(RESET) refers to usartdma.o(.text) for USART1_IRQHandler
    startup_stm32f40_41xxx.o(RESET) refers to sonic.o(.text) for TIM5_IRQHandler
    startup_stm32f40_41xxx.o(RESET) refers to bujin.o(.text) for TIM6_DAC_IRQHandler
    startup_stm32f40_41xxx.o(RESET) refers to control.o(.text) for TIM7_IRQHandler
    startup_stm32f40_41xxx.o(.text) refers to system_stm32f4xx.o(.text) for SystemInit
    startup_stm32f40_41xxx.o(.text) refers to entry.o(.ARM.Collect$$$$00000000) for __main
    stm32f4xx_fsmc.o(.text) refers to stm32f4xx_fsmc.o(.constdata) for FSMC_DefaultTimingStruct
    stm32f4xx_gpio.o(.text) refers to stm32f4xx_rcc.o(.text) for RCC_AHB1PeriphResetCmd
    stm32f4xx_rcc.o(.text) refers to stm32f4xx_rcc.o(.data) for APBAHBPrescTable
    stm32f4xx_syscfg.o(.text) refers to stm32f4xx_rcc.o(.text) for RCC_APB2PeriphResetCmd
    stm32f4xx_usart.o(.text) refers to stm32f4xx_rcc.o(.text) for RCC_APB2PeriphResetCmd
    stm32f4xx_tim.o(.text) refers to stm32f4xx_rcc.o(.text) for RCC_APB2PeriphResetCmd
    stm32f4xx_adc.o(.text) refers to stm32f4xx_rcc.o(.text) for RCC_APB2PeriphResetCmd
    stm32f4xx_spi.o(.text) refers to stm32f4xx_rcc.o(.text) for RCC_APB2PeriphResetCmd
    inv_mpu.o(.text) refers to mpu9250.o(.text) for MPU_Write_Len
    inv_mpu.o(.text) refers to printfa.o(i.__0printf) for __2printf
    inv_mpu.o(.text) refers to delay.o(.text) for delay_ms
    inv_mpu.o(.text) refers to inv_mpu.o(.data) for st
    inv_mpu.o(.text) refers to ldiv.o(.text) for __aeabi_ldivmod
    inv_mpu.o(.text) refers to inv_mpu.o(.constdata) for test
    inv_mpu.o(.text) refers to f2d.o(.text) for __aeabi_f2d
    inv_mpu.o(.text) refers to fabs.o(i.__hardfp_fabs) for __hardfp_fabs
    inv_mpu.o(.text) refers to cdrcmple.o(.text) for __aeabi_cdrcmple
    inv_mpu.o(.text) refers to dflti.o(.text) for __aeabi_i2d
    inv_mpu.o(.text) refers to cdcmple.o(.text) for __aeabi_cdcmple
    inv_mpu.o(.text) refers to memcmp.o(.text) for memcmp
    inv_mpu.o(.text) refers to inv_mpu_dmp_motion_driver.o(.text) for dmp_set_gyro_bias
    inv_mpu.o(.text) refers to mpuiic.o(.text) for IIC_Init
    inv_mpu.o(.text) refers to mpl.o(.text) for inv_init_mpl
    inv_mpu.o(.text) refers to quaternion_supervisor.o(.text) for inv_enable_quaternion
    inv_mpu.o(.text) refers to fusion_9axis.o(.text) for inv_enable_9x_sensor_fusion
    inv_mpu.o(.text) refers to fast_no_motion.o(.text) for inv_enable_fast_nomot
    inv_mpu.o(.text) refers to gyro_tc.o(.text) for inv_enable_gyro_tc
    inv_mpu.o(.text) refers to compass_vec_cal.o(.text) for inv_enable_vector_compass_cal
    inv_mpu.o(.text) refers to mag_disturb.o(.text) for inv_enable_magnetic_disturbance
    inv_mpu.o(.text) refers to empl_outputs.o(.text) for inv_enable_eMPL_outputs
    inv_mpu.o(.text) refers to data_builder.o(.text) for inv_set_gyro_sample_rate
    inv_mpu.o(.text) refers to ml_math_func.o(.text) for inv_orientation_matrix_to_scalar
    inv_mpu.o(.text) refers to asin.o(i.__hardfp_asin) for __hardfp_asin
    inv_mpu.o(.text) refers to dmul.o(.text) for __aeabi_dmul
    inv_mpu.o(.text) refers to d2f.o(.text) for __aeabi_d2f
    inv_mpu.o(.text) refers to atan2.o(i.__hardfp_atan2) for __hardfp_atan2
    inv_mpu.o(.data) refers to inv_mpu.o(.conststring) for .conststring
    inv_mpu.o(.data) refers to inv_mpu.o(.constdata) for reg
    inv_mpu_dmp_motion_driver.o(.text) refers to inv_mpu.o(.text) for mpu_load_firmware
    inv_mpu_dmp_motion_driver.o(.text) refers to inv_mpu_dmp_motion_driver.o(.constdata) for dmp_memory
    inv_mpu_dmp_motion_driver.o(.text) refers to inv_mpu_dmp_motion_driver.o(.bss) for dmp
    inv_mpu_dmp_motion_driver.o(.text) refers to memseta.o(.text) for __aeabi_memset
    log_stm32.o(.text) refers to printfa.o(i.__0vsprintf) for vsprintf
    log_stm32.o(.text) refers to memseta.o(.text) for __aeabi_memclr4
    log_stm32.o(.text) refers to memmovea.o(.text) for __aeabi_memcpy
    log_stm32.o(.text) refers to usart.o(.text) for fputc
    empl_outputs.o(.text) refers to data_builder.o(.text) for inv_get_accel_set
    empl_outputs.o(.text) refers to ml_math_func.o(.text) for inv_q29_mult
    empl_outputs.o(.text) refers to atan2f.o(i.__hardfp_atan2f) for __hardfp_atan2f
    empl_outputs.o(.text) refers to sqrtf.o(i.__hardfp_sqrtf) for __hardfp_sqrtf
    empl_outputs.o(.text) refers to results_holder.o(.text) for inv_get_quaternion_set
    empl_outputs.o(.text) refers to empl_outputs.o(.bss) for eMPL_out
    empl_outputs.o(.text) refers to memseta.o(.text) for __aeabi_memclr4
    empl_outputs.o(.text) refers to start_manager.o(.text) for inv_register_mpl_start_notification
    data_builder.o(.text) refers to memmovea.o(.text) for __aeabi_memcpy
    data_builder.o(.text) refers to results_holder.o(.text) for inv_set_compass_bias_found
    data_builder.o(.text) refers to memseta.o(.text) for __aeabi_memclr4
    data_builder.o(.text) refers to storage_manager.o(.text) for inv_register_load_store
    data_builder.o(.text) refers to ml_math_func.o(.text) for inv_q30_mult
    data_builder.o(.text) refers to memcmp.o(.text) for memcmp
    data_builder.o(.text) refers to message_layer.o(.text) for inv_set_message
    data_builder.o(.text) refers to data_builder.o(.bss) for inv_data_builder
    data_builder.o(.text) refers to log_stm32.o(.text) for _MLPrintLog
    data_builder.o(.text) refers to data_builder.o(.conststring) for .conststring
    hal_outputs.o(.text) refers to data_builder.o(.text) for inv_get_accel_set
    hal_outputs.o(.text) refers to results_holder.o(.text) for inv_get_gravity
    hal_outputs.o(.text) refers to ml_math_func.o(.text) for inv_quaternion_to_rotation
    hal_outputs.o(.text) refers to hal_outputs.o(.bss) for hal_out
    hal_outputs.o(.text) refers to atan2f.o(i.__hardfp_atan2f) for __hardfp_atan2f
    hal_outputs.o(.text) refers to asinf.o(i.__hardfp_asinf) for __hardfp_asinf
    hal_outputs.o(.text) refers to memseta.o(.text) for __aeabi_memclr4
    hal_outputs.o(.text) refers to start_manager.o(.text) for inv_register_mpl_start_notification
    hal_outputs.o(.text) refers to hal_outputs.o(.data) for compass_low_pass_filter_coeff
    message_layer.o(.text) refers to message_layer.o(.data) for mh
    ml_math_func.o(.text) refers to atan2f.o(i.__hardfp_atan2f) for __hardfp_atan2f
    ml_math_func.o(.text) refers to ldiv.o(.text) for __aeabi_ldivmod
    ml_math_func.o(.text) refers to llsshr.o(.text) for __aeabi_lasr
    ml_math_func.o(.text) refers to dmul.o(.text) for __aeabi_dmul
    ml_math_func.o(.text) refers to dadd.o(.text) for __aeabi_dadd
    ml_math_func.o(.text) refers to cdrcmple.o(.text) for __aeabi_cdrcmple
    ml_math_func.o(.text) refers to sqrt.o(i.__hardfp_sqrt) for __hardfp_sqrt
    ml_math_func.o(.text) refers to ddiv.o(.text) for __aeabi_ddiv
    ml_math_func.o(.text) refers to dflti.o(.text) for __aeabi_i2d
    ml_math_func.o(.text) refers to dfixi.o(.text) for __aeabi_d2iz
    ml_math_func.o(.text) refers to cdcmple.o(.text) for __aeabi_cdcmple
    ml_math_func.o(.text) refers to acos.o(i.__hardfp_acos) for __hardfp_acos
    ml_math_func.o(.text) refers to ml_math_func.o(.constdata) for sin_lookup
    ml_math_func.o(.text) refers to sqrtf.o(i.__hardfp_sqrtf) for __hardfp_sqrtf
    ml_math_func.o(.text) refers to f2d.o(.text) for __aeabi_f2d
    mlmath.o(.text) refers to asin.o(i.__hardfp_asin) for __hardfp_asin
    mlmath.o(.text) refers to atan.o(i.__hardfp_atan) for __hardfp_atan
    mlmath.o(.text) refers to atan2.o(i.__hardfp_atan2) for __hardfp_atan2
    mlmath.o(.text) refers to log.o(i.__hardfp_log) for __hardfp_log
    mlmath.o(.text) refers to sqrt.o(i.__hardfp_sqrt) for __hardfp_sqrt
    mlmath.o(.text) refers to ceil.o(i.__hardfp_ceil) for __hardfp_ceil
    mlmath.o(.text) refers to floor.o(i.__hardfp_floor) for __hardfp_floor
    mlmath.o(.text) refers to cos.o(i.__hardfp_cos) for __hardfp_cos
    mlmath.o(.text) refers to sin.o(i.__hardfp_sin) for __hardfp_sin
    mlmath.o(.text) refers to acos.o(i.__hardfp_acos) for __hardfp_acos
    mlmath.o(.text) refers to pow.o(i.__hardfp_pow) for __hardfp_pow
    mpl.o(.text) refers to log_stm32.o(.text) for _MLPrintLog
    mpl.o(.text) refers to storage_manager.o(.text) for inv_init_storage_manager
    mpl.o(.text) refers to start_manager.o(.text) for inv_init_start_manager
    mpl.o(.text) refers to data_builder.o(.text) for inv_init_data_builder
    mpl.o(.text) refers to results_holder.o(.text) for inv_enable_results_holder
    mpl.o(.text) refers to mpl.o(.constdata) for __func__
    results_holder.o(.text) refers to message_layer.o(.text) for inv_set_message
    results_holder.o(.text) refers to ml_math_func.o(.text) for inv_q29_mult
    results_holder.o(.text) refers to data_builder.o(.text) for inv_get_last_timestamp
    results_holder.o(.text) refers to memseta.o(.text) for __aeabi_memclr4
    results_holder.o(.text) refers to start_manager.o(.text) for inv_register_mpl_start_notification
    results_holder.o(.text) refers to results_holder.o(.bss) for rh
    start_manager.o(.text) refers to memseta.o(.text) for __aeabi_memclr4
    start_manager.o(.text) refers to memmovea.o(.text) for __aeabi_memmove4
    start_manager.o(.text) refers to start_manager.o(.bss) for inv_start_cb
    storage_manager.o(.text) refers to memseta.o(.text) for __aeabi_memclr4
    storage_manager.o(.text) refers to ml_math_func.o(.text) for inv_checksum
    storage_manager.o(.text) refers to storage_manager.o(.bss) for ds
    compass_vec_cal.o(.text) refers to dflti.o(.text) for __aeabi_i2d
    compass_vec_cal.o(.text) refers to cdcmple.o(.text) for __aeabi_cdcmple
    compass_vec_cal.o(.text) refers to cdrcmple.o(.text) for __aeabi_cdrcmple
    compass_vec_cal.o(.text) refers to dmul.o(.text) for __aeabi_dmul
    compass_vec_cal.o(.text) refers to dadd.o(.text) for __aeabi_dsub
    compass_vec_cal.o(.text) refers to ffltui.o(.text) for __aeabi_ui2f
    compass_vec_cal.o(.text) refers to fmul.o(.text) for __aeabi_fmul
    compass_vec_cal.o(.text) refers to fscalb.o(.text) for __ARM_scalbnf
    compass_vec_cal.o(.text) refers to cosf.o(i.cosf) for cosf
    compass_vec_cal.o(.text) refers to f2d.o(.text) for __aeabi_f2d
    compass_vec_cal.o(.text) refers to log.o(i.log) for log
    compass_vec_cal.o(.text) refers to d2f.o(.text) for __aeabi_d2f
    compass_vec_cal.o(.text) refers to sqrtf.o(i.sqrtf) for sqrtf
    compass_vec_cal.o(.text) refers to compass_vec_cal.o(.bss) for .bss
    compass_vec_cal.o(.text) refers to compass_vec_cal.o(.data) for .data
    compass_vec_cal.o(.text) refers to dscalb.o(.text) for __ARM_scalbn
    compass_vec_cal.o(.text) refers to ddiv.o(.text) for __aeabi_ddiv
    compass_vec_cal.o(.text) refers to sqrt.o(i.sqrt) for sqrt
    compass_vec_cal.o(.text) refers to data_builder.o(.text) for inv_get_compass_bias
    compass_vec_cal.o(.text) refers to ml_math_func.o(.text) for inv_convert_to_body_with_scale
    compass_vec_cal.o(.text) refers to fflti.o(.text) for __aeabi_i2f
    compass_vec_cal.o(.text) refers to fadd.o(.text) for __aeabi_fadd
    compass_vec_cal.o(.text) refers to results_holder.o(.text) for inv_got_compass_bias
    compass_vec_cal.o(.text) refers to accel_auto_cal.o(.text) for inv_check_sample_balance
    compass_vec_cal.o(.text) refers to memmovea.o(.text) for __aeabi_memcpy4
    compass_vec_cal.o(.text) refers to ffixi.o(.text) for __aeabi_f2iz
    compass_vec_cal.o(.text) refers to memseta.o(.text) for __aeabi_memclr4
    compass_vec_cal.o(.text) refers to mag_disturb.o(.text) for inv_set_magnetic_disturbance
    compass_vec_cal.o(.text) refers to dfixi.o(.text) for __aeabi_d2iz
    compass_vec_cal.o(.text) refers to start_manager.o(.text) for inv_register_mpl_start_notification
    compass_vec_cal.o(.text) refers to ldiv.o(.text) for __aeabi_ldivmod
    fast_no_motion.o(.text) refers to ffltl.o(.text) for __aeabi_l2f
    fast_no_motion.o(.text) refers to fdiv.o(.text) for __aeabi_fdiv
    fast_no_motion.o(.text) refers to ffixl.o(.text) for __aeabi_f2lz
    fast_no_motion.o(.text) refers to llsshr.o(.text) for __aeabi_lasr
    fast_no_motion.o(.text) refers to llshl.o(.text) for __aeabi_llsl
    fast_no_motion.o(.text) refers to memseta.o(.text) for __aeabi_memclr4
    fast_no_motion.o(.text) refers to ml_math_func.o(.text) for inv_q30_mult
    fast_no_motion.o(.text) refers to data_builder.o(.text) for inv_set_gyro_bias
    fast_no_motion.o(.text) refers to results_holder.o(.text) for inv_set_motion_state
    fast_no_motion.o(.text) refers to fast_no_motion.o(.bss) for .bss
    fast_no_motion.o(.text) refers to fflti.o(.text) for __aeabi_i2f
    fast_no_motion.o(.text) refers to sqrtf.o(i.sqrtf) for sqrtf
    fast_no_motion.o(.text) refers to message_layer.o(.text) for inv_set_message
    fast_no_motion.o(.text) refers to start_manager.o(.text) for inv_register_mpl_start_notification
    fusion_9axis.o(.text) refers to memmovea.o(.text) for __aeabi_memmove4
    fusion_9axis.o(.text) refers to fadd.o(.text) for __aeabi_fadd
    fusion_9axis.o(.text) refers to fdiv.o(.text) for __aeabi_fdiv
    fusion_9axis.o(.text) refers to fflti.o(.text) for __aeabi_i2f
    fusion_9axis.o(.text) refers to fmul.o(.text) for __aeabi_fmul
    fusion_9axis.o(.text) refers to cfrcmple.o(.text) for __aeabi_cfrcmple
    fusion_9axis.o(.text) refers to dflti.o(.text) for __aeabi_i2d
    fusion_9axis.o(.text) refers to f2d.o(.text) for __aeabi_f2d
    fusion_9axis.o(.text) refers to ddiv.o(.text) for __aeabi_ddiv
    fusion_9axis.o(.text) refers to dmul.o(.text) for __aeabi_dmul
    fusion_9axis.o(.text) refers to d2f.o(.text) for __aeabi_d2f
    fusion_9axis.o(.text) refers to fscalb.o(.text) for __ARM_scalbnf
    fusion_9axis.o(.text) refers to results_holder.o(.text) for inv_get_6axis_quaternion
    fusion_9axis.o(.text) refers to ml_math_func.o(.text) for inv_get_gyro_sum_of_sqr
    fusion_9axis.o(.text) refers to cosf.o(i.cosf) for cosf
    fusion_9axis.o(.text) refers to sinf.o(i.sinf) for sinf
    fusion_9axis.o(.text) refers to ffixi.o(.text) for __aeabi_f2iz
    fusion_9axis.o(.text) refers to mag_disturb.o(.text) for inv_get_magnetic_disturbance_state
    fusion_9axis.o(.text) refers to fusion_9axis.o(.bss) for .bss
    fusion_9axis.o(.text) refers to memseta.o(.text) for __aeabi_memclr4
    fusion_9axis.o(.text) refers to data_builder.o(.text) for inv_register_data_cb
    fusion_9axis.o(.text) refers to start_manager.o(.text) for inv_register_mpl_start_notification
    fusion_9axis.o(.text) refers to cfcmple.o(.text) for __aeabi_cfcmple
    gyro_tc.o(.text) refers to memmovea.o(.text) for __aeabi_memcpy
    gyro_tc.o(.text) refers to memseta.o(.text) for __aeabi_memclr4
    gyro_tc.o(.text) refers to ldiv.o(.text) for __aeabi_ldivmod
    gyro_tc.o(.text) refers to data_builder.o(.text) for inv_get_gyro_bias
    gyro_tc.o(.text) refers to results_holder.o(.text) for inv_get_motion_state
    gyro_tc.o(.text) refers to gyro_tc.o(.bss) for .bss
    gyro_tc.o(.text) refers to storage_manager.o(.text) for inv_register_load_store
    gyro_tc.o(.text) refers to start_manager.o(.text) for inv_register_mpl_start_notification
    mag_disturb.o(.text) refers to memseta.o(.text) for __aeabi_memclr4
    mag_disturb.o(.text) refers to cfrcmple.o(.text) for __aeabi_cfrcmple
    mag_disturb.o(.text) refers to cfcmple.o(.text) for __aeabi_cfcmple
    mag_disturb.o(.text) refers to results_holder.o(.text) for inv_set_compass_correction
    mag_disturb.o(.text) refers to ml_math_func.o(.text) for inv_quaternion_to_rotation
    mag_disturb.o(.text) refers to fflti.o(.text) for __aeabi_i2f
    mag_disturb.o(.text) refers to fmul.o(.text) for __aeabi_fmul
    mag_disturb.o(.text) refers to fadd.o(.text) for __aeabi_fadd
    mag_disturb.o(.text) refers to sqrtf.o(i.sqrtf) for sqrtf
    mag_disturb.o(.text) refers to fscalb.o(.text) for __ARM_scalbnf
    mag_disturb.o(.text) refers to fdiv.o(.text) for __aeabi_fdiv
    mag_disturb.o(.text) refers to data_builder.o(.text) for inv_get_gyro_on
    mag_disturb.o(.text) refers to acosf.o(i.acosf) for acosf
    mag_disturb.o(.text) refers to memcmp.o(.text) for memcmp
    mag_disturb.o(.text) refers to mag_disturb.o(.bss) for .bss
    mag_disturb.o(.text) refers to ffltui.o(.text) for __aeabi_ui2f
    mag_disturb.o(.text) refers to memmovea.o(.text) for __aeabi_memmove4
    mag_disturb.o(.text) refers to start_manager.o(.text) for inv_register_mpl_start_notification
    quaternion_supervisor.o(.text) refers to fflti.o(.text) for __aeabi_i2f
    quaternion_supervisor.o(.text) refers to fmul.o(.text) for __aeabi_fmul
    quaternion_supervisor.o(.text) refers to fadd.o(.text) for __aeabi_fadd
    quaternion_supervisor.o(.text) refers to sqrtf.o(i.sqrtf) for sqrtf
    quaternion_supervisor.o(.text) refers to cfrcmple.o(.text) for __aeabi_cfrcmple
    quaternion_supervisor.o(.text) refers to fscalb.o(.text) for __ARM_scalbnf
    quaternion_supervisor.o(.text) refers to fdiv.o(.text) for __aeabi_fdiv
    quaternion_supervisor.o(.text) refers to ml_math_func.o(.text) for inv_q_multf
    quaternion_supervisor.o(.text) refers to ffixi.o(.text) for __aeabi_f2iz
    quaternion_supervisor.o(.text) refers to f2d.o(.text) for __aeabi_f2d
    quaternion_supervisor.o(.text) refers to dmul.o(.text) for __aeabi_dmul
    quaternion_supervisor.o(.text) refers to dscalb.o(.text) for __ARM_scalbn
    quaternion_supervisor.o(.text) refers to ddiv.o(.text) for __aeabi_ddiv
    quaternion_supervisor.o(.text) refers to dfixi.o(.text) for __aeabi_d2iz
    quaternion_supervisor.o(.text) refers to data_builder.o(.text) for inv_get_gyro_bias
    quaternion_supervisor.o(.text) refers to memcmp.o(.text) for memcmp
    quaternion_supervisor.o(.text) refers to quaternion_supervisor.o(.bss) for .bss
    quaternion_supervisor.o(.text) refers to cosf.o(i.cosf) for cosf
    quaternion_supervisor.o(.text) refers to sinf.o(i.sinf) for sinf
    quaternion_supervisor.o(.text) refers to results_holder.o(.text) for inv_get_linear_accel
    quaternion_supervisor.o(.text) refers to memseta.o(.text) for __aeabi_memclr4
    quaternion_supervisor.o(.text) refers to start_manager.o(.text) for inv_register_mpl_start_notification
    quaternion_supervisor.o(.text) refers to inv_mpu.o(.data) for mpl_key
    accel_auto_cal.o(.text) refers to cfcmple.o(.text) for __aeabi_cfcmple
    accel_auto_cal.o(.text) refers to cfrcmple.o(.text) for __aeabi_cfrcmple
    accel_auto_cal.o(.text) refers to ml_math_func.o(.text) for inv_convert_to_body_with_scale
    accel_auto_cal.o(.text) refers to results_holder.o(.text) for inv_get_gravity
    accel_auto_cal.o(.text) refers to memmovea.o(.text) for __aeabi_memmove4
    accel_auto_cal.o(.text) refers to data_builder.o(.text) for inv_set_accel_bias_mask
    accel_auto_cal.o(.text) refers to dadd.o(.text) for __aeabi_dsub
    accel_auto_cal.o(.text) refers to cdcmple.o(.text) for __aeabi_cdcmple
    accel_auto_cal.o(.text) refers to dfixi.o(.text) for __aeabi_d2iz
    accel_auto_cal.o(.text) refers to compass_vec_cal.o(.text) for inv_combine_compass_data
    accel_auto_cal.o(.text) refers to fflti.o(.text) for __aeabi_i2f
    accel_auto_cal.o(.text) refers to fscalb.o(.text) for __ARM_scalbnf
    accel_auto_cal.o(.text) refers to f2d.o(.text) for __aeabi_f2d
    accel_auto_cal.o(.text) refers to cdrcmple.o(.text) for __aeabi_cdrcmple
    accel_auto_cal.o(.text) refers to accel_auto_cal.o(.bss) for .bss
    accel_auto_cal.o(.text) refers to fmul.o(.text) for __aeabi_fmul
    accel_auto_cal.o(.text) refers to sqrt.o(i.sqrt) for sqrt
    accel_auto_cal.o(.text) refers to ddiv.o(.text) for __aeabi_ddiv
    accel_auto_cal.o(.text) refers to d2f.o(.text) for __aeabi_d2f
    accel_auto_cal.o(.text) refers to fadd.o(.text) for __aeabi_fadd
    accel_auto_cal.o(.text) refers to hal_outputs.o(.text) for inv_get_sensor_type_gravity
    accel_auto_cal.o(.text) refers to fdiv.o(.text) for __aeabi_fdiv
    accel_auto_cal.o(.text) refers to cos.o(i.cos) for cos
    accel_auto_cal.o(.text) refers to dscalb.o(.text) for __ARM_scalbn
    accel_auto_cal.o(.text) refers to sqrtf.o(i.sqrtf) for sqrtf
    accel_auto_cal.o(.text) refers to ffixi.o(.text) for __aeabi_f2iz
    accel_auto_cal.o(.text) refers to fast_no_motion.o(.text) for inv_fast_nomot_store_data
    accel_auto_cal.o(.text) refers to ffltl.o(.text) for __aeabi_l2f
    accel_auto_cal.o(.text) refers to memseta.o(.text) for __aeabi_memclr4
    accel_auto_cal.o(.text) refers to start_manager.o(.text) for inv_register_mpl_start_notification
    acos.o(i.__hardfp_acos) refers (Special) to iusefp.o(.text) for __I$use$fp
    acos.o(i.__hardfp_acos) refers to dunder.o(i.__mathlib_dbl_infnan) for __mathlib_dbl_infnan
    acos.o(i.__hardfp_acos) refers to errno.o(i.__set_errno) for __set_errno
    acos.o(i.__hardfp_acos) refers to dunder.o(i.__mathlib_dbl_invalid) for __mathlib_dbl_invalid
    acos.o(i.__hardfp_acos) refers to dmul.o(.text) for __aeabi_dmul
    acos.o(i.__hardfp_acos) refers to poly.o(i.__kernel_poly) for __kernel_poly
    acos.o(i.__hardfp_acos) refers to dadd.o(.text) for __aeabi_dadd
    acos.o(i.__hardfp_acos) refers to ddiv.o(.text) for __aeabi_ddiv
    acos.o(i.__hardfp_acos) refers to sqrt.o(i.sqrt) for sqrt
    acos.o(i.__hardfp_acos) refers to acos.o(.constdata) for .constdata
    acos.o(i.__softfp_acos) refers (Special) to iusefp.o(.text) for __I$use$fp
    acos.o(i.__softfp_acos) refers to acos.o(i.__hardfp_acos) for __hardfp_acos
    acos.o(i.acos) refers (Special) to iusefp.o(.text) for __I$use$fp
    acos.o(i.acos) refers to acos.o(i.__hardfp_acos) for __hardfp_acos
    acos.o(.constdata) refers (Special) to iusefp.o(.text) for __I$use$fp
    acos_x.o(i.____hardfp_acos$lsc) refers (Special) to iusefp.o(.text) for __I$use$fp
    acos_x.o(i.____hardfp_acos$lsc) refers to dunder.o(i.__mathlib_dbl_infnan) for __mathlib_dbl_infnan
    acos_x.o(i.____hardfp_acos$lsc) refers to errno.o(i.__set_errno) for __set_errno
    acos_x.o(i.____hardfp_acos$lsc) refers to dmul.o(.text) for __aeabi_dmul
    acos_x.o(i.____hardfp_acos$lsc) refers to poly.o(i.__kernel_poly) for __kernel_poly
    acos_x.o(i.____hardfp_acos$lsc) refers to dadd.o(.text) for __aeabi_dadd
    acos_x.o(i.____hardfp_acos$lsc) refers to ddiv.o(.text) for __aeabi_ddiv
    acos_x.o(i.____hardfp_acos$lsc) refers to sqrt.o(i.sqrt) for sqrt
    acos_x.o(i.____hardfp_acos$lsc) refers to acos_x.o(.constdata) for .constdata
    acos_x.o(i.____softfp_acos$lsc) refers (Special) to iusefp.o(.text) for __I$use$fp
    acos_x.o(i.____softfp_acos$lsc) refers to acos_x.o(i.____hardfp_acos$lsc) for ____hardfp_acos$lsc
    acos_x.o(i.__acos$lsc) refers (Special) to iusefp.o(.text) for __I$use$fp
    acos_x.o(i.__acos$lsc) refers to acos_x.o(i.____hardfp_acos$lsc) for ____hardfp_acos$lsc
    acos_x.o(.constdata) refers (Special) to iusefp.o(.text) for __I$use$fp
    acosf.o(i.__hardfp_acosf) refers (Special) to iusefp.o(.text) for __I$use$fp
    acosf.o(i.__hardfp_acosf) refers to sqrtf.o(i.sqrtf) for sqrtf
    acosf.o(i.__hardfp_acosf) refers to funder.o(i.__mathlib_flt_infnan) for __mathlib_flt_infnan
    acosf.o(i.__hardfp_acosf) refers to errno.o(i.__set_errno) for __set_errno
    acosf.o(i.__hardfp_acosf) refers to funder.o(i.__mathlib_flt_invalid) for __mathlib_flt_invalid
    acosf.o(i.__softfp_acosf) refers (Special) to iusefp.o(.text) for __I$use$fp
    acosf.o(i.__softfp_acosf) refers to acosf.o(i.__hardfp_acosf) for __hardfp_acosf
    acosf.o(i.acosf) refers (Special) to iusefp.o(.text) for __I$use$fp
    acosf.o(i.acosf) refers to acosf.o(i.__hardfp_acosf) for __hardfp_acosf
    acosf_x.o(i.____hardfp_acosf$lsc) refers (Special) to iusefp.o(.text) for __I$use$fp
    acosf_x.o(i.____hardfp_acosf$lsc) refers to sqrtf.o(i.sqrtf) for sqrtf
    acosf_x.o(i.____hardfp_acosf$lsc) refers to funder.o(i.__mathlib_flt_infnan) for __mathlib_flt_infnan
    acosf_x.o(i.____hardfp_acosf$lsc) refers to errno.o(i.__set_errno) for __set_errno
    acosf_x.o(i.____softfp_acosf$lsc) refers (Special) to iusefp.o(.text) for __I$use$fp
    acosf_x.o(i.____softfp_acosf$lsc) refers to acosf_x.o(i.____hardfp_acosf$lsc) for ____hardfp_acosf$lsc
    acosf_x.o(i.__acosf$lsc) refers (Special) to iusefp.o(.text) for __I$use$fp
    acosf_x.o(i.__acosf$lsc) refers to acosf_x.o(i.____hardfp_acosf$lsc) for ____hardfp_acosf$lsc
    asin.o(i.__hardfp_asin) refers (Special) to iusefp.o(.text) for __I$use$fp
    asin.o(i.__hardfp_asin) refers to dunder.o(i.__mathlib_dbl_infnan) for __mathlib_dbl_infnan
    asin.o(i.__hardfp_asin) refers to dmul.o(.text) for __aeabi_dmul
    asin.o(i.__hardfp_asin) refers to dadd.o(.text) for __aeabi_dadd
    asin.o(i.__hardfp_asin) refers to errno.o(i.__set_errno) for __set_errno
    asin.o(i.__hardfp_asin) refers to dunder.o(i.__mathlib_dbl_invalid) for __mathlib_dbl_invalid
    asin.o(i.__hardfp_asin) refers to fpclassify.o(i.__ARM_fpclassify) for __ARM_fpclassify
    asin.o(i.__hardfp_asin) refers to dunder.o(i.__mathlib_dbl_underflow) for __mathlib_dbl_underflow
    asin.o(i.__hardfp_asin) refers to poly.o(i.__kernel_poly) for __kernel_poly
    asin.o(i.__hardfp_asin) refers to ddiv.o(.text) for __aeabi_ddiv
    asin.o(i.__hardfp_asin) refers to fabs.o(i.fabs) for fabs
    asin.o(i.__hardfp_asin) refers to sqrt.o(i.sqrt) for sqrt
    asin.o(i.__hardfp_asin) refers to asin.o(.constdata) for .constdata
    asin.o(i.__softfp_asin) refers (Special) to iusefp.o(.text) for __I$use$fp
    asin.o(i.__softfp_asin) refers to asin.o(i.__hardfp_asin) for __hardfp_asin
    asin.o(i.asin) refers (Special) to iusefp.o(.text) for __I$use$fp
    asin.o(i.asin) refers to asin.o(i.__hardfp_asin) for __hardfp_asin
    asin.o(.constdata) refers (Special) to iusefp.o(.text) for __I$use$fp
    asin_x.o(i.____hardfp_asin$lsc) refers (Special) to iusefp.o(.text) for __I$use$fp
    asin_x.o(i.____hardfp_asin$lsc) refers to dunder.o(i.__mathlib_dbl_infnan) for __mathlib_dbl_infnan
    asin_x.o(i.____hardfp_asin$lsc) refers to dmul.o(.text) for __aeabi_dmul
    asin_x.o(i.____hardfp_asin$lsc) refers to dadd.o(.text) for __aeabi_dadd
    asin_x.o(i.____hardfp_asin$lsc) refers to errno.o(i.__set_errno) for __set_errno
    asin_x.o(i.____hardfp_asin$lsc) refers to poly.o(i.__kernel_poly) for __kernel_poly
    asin_x.o(i.____hardfp_asin$lsc) refers to ddiv.o(.text) for __aeabi_ddiv
    asin_x.o(i.____hardfp_asin$lsc) refers to fabs.o(i.fabs) for fabs
    asin_x.o(i.____hardfp_asin$lsc) refers to sqrt.o(i.sqrt) for sqrt
    asin_x.o(i.____hardfp_asin$lsc) refers to asin_x.o(.constdata) for .constdata
    asin_x.o(i.____softfp_asin$lsc) refers (Special) to iusefp.o(.text) for __I$use$fp
    asin_x.o(i.____softfp_asin$lsc) refers to asin_x.o(i.____hardfp_asin$lsc) for ____hardfp_asin$lsc
    asin_x.o(i.__asin$lsc) refers (Special) to iusefp.o(.text) for __I$use$fp
    asin_x.o(i.__asin$lsc) refers to asin_x.o(i.____hardfp_asin$lsc) for ____hardfp_asin$lsc
    asin_x.o(.constdata) refers (Special) to iusefp.o(.text) for __I$use$fp
    asinf.o(i.__hardfp_asinf) refers (Special) to iusefp.o(.text) for __I$use$fp
    asinf.o(i.__hardfp_asinf) refers to sqrtf.o(i.sqrtf) for sqrtf
    asinf.o(i.__hardfp_asinf) refers to fpclassifyf.o(i.__ARM_fpclassifyf) for __ARM_fpclassifyf
    asinf.o(i.__hardfp_asinf) refers to funder.o(i.__mathlib_flt_underflow) for __mathlib_flt_underflow
    asinf.o(i.__hardfp_asinf) refers to funder.o(i.__mathlib_flt_infnan) for __mathlib_flt_infnan
    asinf.o(i.__hardfp_asinf) refers to errno.o(i.__set_errno) for __set_errno
    asinf.o(i.__hardfp_asinf) refers to funder.o(i.__mathlib_flt_invalid) for __mathlib_flt_invalid
    asinf.o(i.__softfp_asinf) refers (Special) to iusefp.o(.text) for __I$use$fp
    asinf.o(i.__softfp_asinf) refers to asinf.o(i.__hardfp_asinf) for __hardfp_asinf
    asinf.o(i.asinf) refers (Special) to iusefp.o(.text) for __I$use$fp
    asinf.o(i.asinf) refers to asinf.o(i.__hardfp_asinf) for __hardfp_asinf
    asinf_x.o(i.____hardfp_asinf$lsc) refers (Special) to iusefp.o(.text) for __I$use$fp
    asinf_x.o(i.____hardfp_asinf$lsc) refers to sqrtf.o(i.sqrtf) for sqrtf
    asinf_x.o(i.____hardfp_asinf$lsc) refers to funder.o(i.__mathlib_flt_infnan) for __mathlib_flt_infnan
    asinf_x.o(i.____hardfp_asinf$lsc) refers to errno.o(i.__set_errno) for __set_errno
    asinf_x.o(i.____softfp_asinf$lsc) refers (Special) to iusefp.o(.text) for __I$use$fp
    asinf_x.o(i.____softfp_asinf$lsc) refers to asinf_x.o(i.____hardfp_asinf$lsc) for ____hardfp_asinf$lsc
    asinf_x.o(i.__asinf$lsc) refers (Special) to iusefp.o(.text) for __I$use$fp
    asinf_x.o(i.__asinf$lsc) refers to asinf_x.o(i.____hardfp_asinf$lsc) for ____hardfp_asinf$lsc
    atan.o(i.__hardfp_atan) refers (Special) to iusefp.o(.text) for __I$use$fp
    atan.o(i.__hardfp_atan) refers to dunder.o(i.__mathlib_dbl_infnan) for __mathlib_dbl_infnan
    atan.o(i.__hardfp_atan) refers to fpclassify.o(i.__ARM_fpclassify) for __ARM_fpclassify
    atan.o(i.__hardfp_atan) refers to dunder.o(i.__mathlib_dbl_underflow) for __mathlib_dbl_underflow
    atan.o(i.__hardfp_atan) refers to fabs.o(i.fabs) for fabs
    atan.o(i.__hardfp_atan) refers to dadd.o(.text) for __aeabi_dadd
    atan.o(i.__hardfp_atan) refers to dmul.o(.text) for __aeabi_dmul
    atan.o(i.__hardfp_atan) refers to ddiv.o(.text) for __aeabi_ddiv
    atan.o(i.__hardfp_atan) refers to poly.o(i.__kernel_poly) for __kernel_poly
    atan.o(i.__hardfp_atan) refers to atan.o(.constdata) for .constdata
    atan.o(i.__softfp_atan) refers (Special) to iusefp.o(.text) for __I$use$fp
    atan.o(i.__softfp_atan) refers to atan.o(i.__hardfp_atan) for __hardfp_atan
    atan.o(i.atan) refers (Special) to iusefp.o(.text) for __I$use$fp
    atan.o(i.atan) refers to atan.o(i.__hardfp_atan) for __hardfp_atan
    atan.o(.constdata) refers (Special) to iusefp.o(.text) for __I$use$fp
    atan_x.o(i.____hardfp_atan$lsc) refers (Special) to iusefp.o(.text) for __I$use$fp
    atan_x.o(i.____hardfp_atan$lsc) refers to dunder.o(i.__mathlib_dbl_infnan) for __mathlib_dbl_infnan
    atan_x.o(i.____hardfp_atan$lsc) refers to fabs.o(i.fabs) for fabs
    atan_x.o(i.____hardfp_atan$lsc) refers to dadd.o(.text) for __aeabi_dadd
    atan_x.o(i.____hardfp_atan$lsc) refers to dmul.o(.text) for __aeabi_dmul
    atan_x.o(i.____hardfp_atan$lsc) refers to ddiv.o(.text) for __aeabi_ddiv
    atan_x.o(i.____hardfp_atan$lsc) refers to poly.o(i.__kernel_poly) for __kernel_poly
    atan_x.o(i.____hardfp_atan$lsc) refers to atan_x.o(.constdata) for .constdata
    atan_x.o(i.____softfp_atan$lsc) refers (Special) to iusefp.o(.text) for __I$use$fp
    atan_x.o(i.____softfp_atan$lsc) refers to atan_x.o(i.____hardfp_atan$lsc) for ____hardfp_atan$lsc
    atan_x.o(i.__atan$lsc) refers (Special) to iusefp.o(.text) for __I$use$fp
    atan_x.o(i.__atan$lsc) refers to atan_x.o(i.____hardfp_atan$lsc) for ____hardfp_atan$lsc
    atan_x.o(.constdata) refers (Special) to iusefp.o(.text) for __I$use$fp
    atan2.o(i.__hardfp_atan2) refers (Special) to iusefp.o(.text) for __I$use$fp
    atan2.o(i.__hardfp_atan2) refers to dunder.o(i.__mathlib_dbl_infnan2) for __mathlib_dbl_infnan2
    atan2.o(i.__hardfp_atan2) refers to atan.o(i.atan) for atan
    atan2.o(i.__hardfp_atan2) refers to ddiv.o(.text) for __aeabi_ddiv
    atan2.o(i.__hardfp_atan2) refers to fabs.o(i.fabs) for fabs
    atan2.o(i.__hardfp_atan2) refers to dadd.o(.text) for __aeabi_dsub
    atan2.o(i.__hardfp_atan2) refers to qnan.o(.constdata) for __mathlib_zero
    atan2.o(i.__softfp_atan2) refers (Special) to iusefp.o(.text) for __I$use$fp
    atan2.o(i.__softfp_atan2) refers to atan2.o(i.__hardfp_atan2) for __hardfp_atan2
    atan2.o(i.atan2) refers (Special) to iusefp.o(.text) for __I$use$fp
    atan2.o(i.atan2) refers to atan2.o(i.__hardfp_atan2) for __hardfp_atan2
    atan2_x.o(i.____hardfp_atan2$lsc) refers (Special) to iusefp.o(.text) for __I$use$fp
    atan2_x.o(i.____hardfp_atan2$lsc) refers to dunder.o(i.__mathlib_dbl_infnan2) for __mathlib_dbl_infnan2
    atan2_x.o(i.____hardfp_atan2$lsc) refers to atan.o(i.atan) for atan
    atan2_x.o(i.____hardfp_atan2$lsc) refers to errno.o(i.__set_errno) for __set_errno
    atan2_x.o(i.____hardfp_atan2$lsc) refers to ddiv.o(.text) for __aeabi_ddiv
    atan2_x.o(i.____hardfp_atan2$lsc) refers to fabs.o(i.fabs) for fabs
    atan2_x.o(i.____hardfp_atan2$lsc) refers to dadd.o(.text) for __aeabi_dsub
    atan2_x.o(i.____hardfp_atan2$lsc) refers to qnan.o(.constdata) for __mathlib_zero
    atan2_x.o(i.____softfp_atan2$lsc) refers (Special) to iusefp.o(.text) for __I$use$fp
    atan2_x.o(i.____softfp_atan2$lsc) refers to atan2_x.o(i.____hardfp_atan2$lsc) for ____hardfp_atan2$lsc
    atan2_x.o(i.__atan2$lsc) refers (Special) to iusefp.o(.text) for __I$use$fp
    atan2_x.o(i.__atan2$lsc) refers to atan2_x.o(i.____hardfp_atan2$lsc) for ____hardfp_atan2$lsc
    atan2f.o(i.__hardfp_atan2f) refers (Special) to iusefp.o(.text) for __I$use$fp
    atan2f.o(i.__hardfp_atan2f) refers to fpclassifyf.o(i.__ARM_fpclassifyf) for __ARM_fpclassifyf
    atan2f.o(i.__hardfp_atan2f) refers to funder.o(i.__mathlib_flt_underflow) for __mathlib_flt_underflow
    atan2f.o(i.__hardfp_atan2f) refers to funder.o(i.__mathlib_flt_infnan2) for __mathlib_flt_infnan2
    atan2f.o(i.__softfp_atan2f) refers (Special) to iusefp.o(.text) for __I$use$fp
    atan2f.o(i.__softfp_atan2f) refers to atan2f.o(i.__hardfp_atan2f) for __hardfp_atan2f
    atan2f.o(i.atan2f) refers (Special) to iusefp.o(.text) for __I$use$fp
    atan2f.o(i.atan2f) refers to atan2f.o(i.__hardfp_atan2f) for __hardfp_atan2f
    atan2f_x.o(i.____hardfp_atan2f$lsc) refers (Special) to iusefp.o(.text) for __I$use$fp
    atan2f_x.o(i.____hardfp_atan2f$lsc) refers to funder.o(i.__mathlib_flt_infnan2) for __mathlib_flt_infnan2
    atan2f_x.o(i.____hardfp_atan2f$lsc) refers to errno.o(i.__set_errno) for __set_errno
    atan2f_x.o(i.____softfp_atan2f$lsc) refers (Special) to iusefp.o(.text) for __I$use$fp
    atan2f_x.o(i.____softfp_atan2f$lsc) refers to atan2f_x.o(i.____hardfp_atan2f$lsc) for ____hardfp_atan2f$lsc
    atan2f_x.o(i.__atan2f$lsc) refers (Special) to iusefp.o(.text) for __I$use$fp
    atan2f_x.o(i.__atan2f$lsc) refers to atan2f_x.o(i.____hardfp_atan2f$lsc) for ____hardfp_atan2f$lsc
    ceil.o(i.__hardfp_ceil) refers (Special) to iusefp.o(.text) for __I$use$fp
    ceil.o(i.__hardfp_ceil) refers to dadd.o(.text) for __aeabi_dadd
    ceil.o(i.__hardfp_ceil) refers to cdrcmple.o(.text) for __aeabi_cdrcmple
    ceil.o(i.__softfp_ceil) refers (Special) to iusefp.o(.text) for __I$use$fp
    ceil.o(i.__softfp_ceil) refers to ceil.o(i.__hardfp_ceil) for __hardfp_ceil
    ceil.o(i.ceil) refers (Special) to iusefp.o(.text) for __I$use$fp
    ceil.o(i.ceil) refers to ceil.o(i.__hardfp_ceil) for __hardfp_ceil
    cos.o(i.__hardfp_cos) refers (Special) to iusefp.o(.text) for __I$use$fp
    cos.o(i.__hardfp_cos) refers to errno.o(i.__set_errno) for __set_errno
    cos.o(i.__hardfp_cos) refers to dunder.o(i.__mathlib_dbl_invalid) for __mathlib_dbl_invalid
    cos.o(i.__hardfp_cos) refers to dunder.o(i.__mathlib_dbl_infnan) for __mathlib_dbl_infnan
    cos.o(i.__hardfp_cos) refers to rred.o(i.__ieee754_rem_pio2) for __ieee754_rem_pio2
    cos.o(i.__hardfp_cos) refers to sin_i.o(i.__kernel_sin) for __kernel_sin
    cos.o(i.__hardfp_cos) refers to cos_i.o(i.__kernel_cos) for __kernel_cos
    cos.o(i.__softfp_cos) refers (Special) to iusefp.o(.text) for __I$use$fp
    cos.o(i.__softfp_cos) refers to cos.o(i.__hardfp_cos) for __hardfp_cos
    cos.o(i.cos) refers (Special) to iusefp.o(.text) for __I$use$fp
    cos.o(i.cos) refers to cos.o(i.__hardfp_cos) for __hardfp_cos
    cos_x.o(i.____hardfp_cos$lsc) refers (Special) to iusefp.o(.text) for __I$use$fp
    cos_x.o(i.____hardfp_cos$lsc) refers to errno.o(i.__set_errno) for __set_errno
    cos_x.o(i.____hardfp_cos$lsc) refers to dunder.o(i.__mathlib_dbl_infnan) for __mathlib_dbl_infnan
    cos_x.o(i.____hardfp_cos$lsc) refers to rred.o(i.__ieee754_rem_pio2) for __ieee754_rem_pio2
    cos_x.o(i.____hardfp_cos$lsc) refers to sin_i.o(i.__kernel_sin) for __kernel_sin
    cos_x.o(i.____hardfp_cos$lsc) refers to cos_i.o(i.__kernel_cos) for __kernel_cos
    cos_x.o(i.____softfp_cos$lsc) refers (Special) to iusefp.o(.text) for __I$use$fp
    cos_x.o(i.____softfp_cos$lsc) refers to cos_x.o(i.____hardfp_cos$lsc) for ____hardfp_cos$lsc
    cos_x.o(i.__cos$lsc) refers (Special) to iusefp.o(.text) for __I$use$fp
    cos_x.o(i.__cos$lsc) refers to cos_x.o(i.____hardfp_cos$lsc) for ____hardfp_cos$lsc
    cosf.o(i.__hardfp_cosf) refers (Special) to iusefp.o(.text) for __I$use$fp
    cosf.o(i.__hardfp_cosf) refers to rredf.o(i.__mathlib_rredf2) for __mathlib_rredf2
    cosf.o(i.__hardfp_cosf) refers to errno.o(i.__set_errno) for __set_errno
    cosf.o(i.__hardfp_cosf) refers to funder.o(i.__mathlib_flt_invalid) for __mathlib_flt_invalid
    cosf.o(i.__hardfp_cosf) refers to funder.o(i.__mathlib_flt_infnan) for __mathlib_flt_infnan
    cosf.o(i.__softfp_cosf) refers (Special) to iusefp.o(.text) for __I$use$fp
    cosf.o(i.__softfp_cosf) refers to cosf.o(i.__hardfp_cosf) for __hardfp_cosf
    cosf.o(i.cosf) refers (Special) to iusefp.o(.text) for __I$use$fp
    cosf.o(i.cosf) refers to cosf.o(i.__hardfp_cosf) for __hardfp_cosf
    cosf_x.o(i.____hardfp_cosf$lsc) refers (Special) to iusefp.o(.text) for __I$use$fp
    cosf_x.o(i.____hardfp_cosf$lsc) refers to rredf.o(i.__mathlib_rredf2) for __mathlib_rredf2
    cosf_x.o(i.____hardfp_cosf$lsc) refers to errno.o(i.__set_errno) for __set_errno
    cosf_x.o(i.____hardfp_cosf$lsc) refers to funder.o(i.__mathlib_flt_infnan) for __mathlib_flt_infnan
    cosf_x.o(i.____softfp_cosf$lsc) refers (Special) to iusefp.o(.text) for __I$use$fp
    cosf_x.o(i.____softfp_cosf$lsc) refers to cosf_x.o(i.____hardfp_cosf$lsc) for ____hardfp_cosf$lsc
    cosf_x.o(i.__cosf$lsc) refers (Special) to iusefp.o(.text) for __I$use$fp
    cosf_x.o(i.__cosf$lsc) refers to cosf_x.o(i.____hardfp_cosf$lsc) for ____hardfp_cosf$lsc
    fabs.o(i.__hardfp_fabs) refers (Special) to iusefp.o(.text) for __I$use$fp
    fabs.o(i.__softfp_fabs) refers (Special) to iusefp.o(.text) for __I$use$fp
    fabs.o(i.fabs) refers (Special) to iusefp.o(.text) for __I$use$fp
    floor.o(i.__hardfp_floor) refers (Special) to iusefp.o(.text) for __I$use$fp
    floor.o(i.__hardfp_floor) refers to dadd.o(.text) for __aeabi_dadd
    floor.o(i.__hardfp_floor) refers to cdrcmple.o(.text) for __aeabi_cdrcmple
    floor.o(i.__softfp_floor) refers (Special) to iusefp.o(.text) for __I$use$fp
    floor.o(i.__softfp_floor) refers to floor.o(i.__hardfp_floor) for __hardfp_floor
    floor.o(i.floor) refers (Special) to iusefp.o(.text) for __I$use$fp
    floor.o(i.floor) refers to floor.o(i.__hardfp_floor) for __hardfp_floor
    log.o(i.__hardfp_log) refers (Special) to iusefp.o(.text) for __I$use$fp
    log.o(i.__hardfp_log) refers to dunder.o(i.__mathlib_dbl_infnan) for __mathlib_dbl_infnan
    log.o(i.__hardfp_log) refers to errno.o(i.__set_errno) for __set_errno
    log.o(i.__hardfp_log) refers to dunder.o(i.__mathlib_dbl_invalid) for __mathlib_dbl_invalid
    log.o(i.__hardfp_log) refers to dunder.o(i.__mathlib_dbl_divzero) for __mathlib_dbl_divzero
    log.o(i.__hardfp_log) refers to dmul.o(.text) for __aeabi_dmul
    log.o(i.__hardfp_log) refers to dadd.o(.text) for __aeabi_dsub
    log.o(i.__hardfp_log) refers to cdcmple.o(.text) for __aeabi_cdcmpeq
    log.o(i.__hardfp_log) refers to dflti.o(.text) for __aeabi_i2d
    log.o(i.__hardfp_log) refers to ddiv.o(.text) for __aeabi_ddiv
    log.o(i.__hardfp_log) refers to poly.o(i.__kernel_poly) for __kernel_poly
    log.o(i.__hardfp_log) refers to qnan.o(.constdata) for __mathlib_zero
    log.o(i.__hardfp_log) refers to log.o(.constdata) for .constdata
    log.o(i.__softfp_log) refers (Special) to iusefp.o(.text) for __I$use$fp
    log.o(i.__softfp_log) refers to log.o(i.__hardfp_log) for __hardfp_log
    log.o(i.log) refers (Special) to iusefp.o(.text) for __I$use$fp
    log.o(i.log) refers to log.o(i.__hardfp_log) for __hardfp_log
    log.o(.constdata) refers (Special) to iusefp.o(.text) for __I$use$fp
    log_x.o(i.____hardfp_log$lsc) refers (Special) to iusefp.o(.text) for __I$use$fp
    log_x.o(i.____hardfp_log$lsc) refers to dunder.o(i.__mathlib_dbl_infnan) for __mathlib_dbl_infnan
    log_x.o(i.____hardfp_log$lsc) refers to errno.o(i.__set_errno) for __set_errno
    log_x.o(i.____hardfp_log$lsc) refers to dmul.o(.text) for __aeabi_dmul
    log_x.o(i.____hardfp_log$lsc) refers to dadd.o(.text) for __aeabi_dsub
    log_x.o(i.____hardfp_log$lsc) refers to cdcmple.o(.text) for __aeabi_cdcmpeq
    log_x.o(i.____hardfp_log$lsc) refers to dflti.o(.text) for __aeabi_i2d
    log_x.o(i.____hardfp_log$lsc) refers to ddiv.o(.text) for __aeabi_ddiv
    log_x.o(i.____hardfp_log$lsc) refers to poly.o(i.__kernel_poly) for __kernel_poly
    log_x.o(i.____hardfp_log$lsc) refers to qnan.o(.constdata) for __mathlib_zero
    log_x.o(i.____hardfp_log$lsc) refers to log_x.o(.constdata) for .constdata
    log_x.o(i.____softfp_log$lsc) refers (Special) to iusefp.o(.text) for __I$use$fp
    log_x.o(i.____softfp_log$lsc) refers to log_x.o(i.____hardfp_log$lsc) for ____hardfp_log$lsc
    log_x.o(i.__log$lsc) refers (Special) to iusefp.o(.text) for __I$use$fp
    log_x.o(i.__log$lsc) refers to log_x.o(i.____hardfp_log$lsc) for ____hardfp_log$lsc
    log_x.o(.constdata) refers (Special) to iusefp.o(.text) for __I$use$fp
    pow.o(i.__hardfp_pow) refers (Special) to iusefp.o(.text) for __I$use$fp
    pow.o(i.__hardfp_pow) refers to dunder.o(i.__mathlib_dbl_infnan2) for __mathlib_dbl_infnan2
    pow.o(i.__hardfp_pow) refers to errno.o(i.__set_errno) for __set_errno
    pow.o(i.__hardfp_pow) refers to dunder.o(i.__mathlib_dbl_divzero) for __mathlib_dbl_divzero
    pow.o(i.__hardfp_pow) refers to dunder.o(i.__mathlib_dbl_overflow) for __mathlib_dbl_overflow
    pow.o(i.__hardfp_pow) refers to ddiv.o(.text) for __aeabi_ddiv
    pow.o(i.__hardfp_pow) refers to sqrt.o(i.sqrt) for sqrt
    pow.o(i.__hardfp_pow) refers to fabs.o(i.fabs) for fabs
    pow.o(i.__hardfp_pow) refers to dflti.o(.text) for __aeabi_i2d
    pow.o(i.__hardfp_pow) refers to dunder.o(i.__mathlib_dbl_invalid) for __mathlib_dbl_invalid
    pow.o(i.__hardfp_pow) refers to dmul.o(.text) for __aeabi_dmul
    pow.o(i.__hardfp_pow) refers to dunder.o(i.__mathlib_dbl_underflow) for __mathlib_dbl_underflow
    pow.o(i.__hardfp_pow) refers to dadd.o(.text) for __aeabi_dsub
    pow.o(i.__hardfp_pow) refers to qnan.o(.constdata) for __mathlib_zero
    pow.o(i.__hardfp_pow) refers to poly.o(i.__kernel_poly) for __kernel_poly
    pow.o(i.__hardfp_pow) refers to pow.o(.constdata) for .constdata
    pow.o(i.__hardfp_pow) refers to cdrcmple.o(.text) for __aeabi_cdrcmple
    pow.o(i.__hardfp_pow) refers to dscalb.o(.text) for __ARM_scalbn
    pow.o(i.__hardfp_pow) refers to fpclassify.o(i.__ARM_fpclassify) for __ARM_fpclassify
    pow.o(i.__softfp_pow) refers (Special) to iusefp.o(.text) for __I$use$fp
    pow.o(i.__softfp_pow) refers to pow.o(i.__hardfp_pow) for __hardfp_pow
    pow.o(i.pow) refers (Special) to iusefp.o(.text) for __I$use$fp
    pow.o(i.pow) refers to pow.o(i.__hardfp_pow) for __hardfp_pow
    pow.o(.constdata) refers (Special) to iusefp.o(.text) for __I$use$fp
    pow_x.o(i.____hardfp_pow$lsc) refers (Special) to iusefp.o(.text) for __I$use$fp
    pow_x.o(i.____hardfp_pow$lsc) refers to dunder.o(i.__mathlib_dbl_infnan2) for __mathlib_dbl_infnan2
    pow_x.o(i.____hardfp_pow$lsc) refers to errno.o(i.__set_errno) for __set_errno
    pow_x.o(i.____hardfp_pow$lsc) refers to ddiv.o(.text) for __aeabi_ddiv
    pow_x.o(i.____hardfp_pow$lsc) refers to sqrt.o(i.sqrt) for sqrt
    pow_x.o(i.____hardfp_pow$lsc) refers to fabs.o(i.fabs) for fabs
    pow_x.o(i.____hardfp_pow$lsc) refers to dflti.o(.text) for __aeabi_i2d
    pow_x.o(i.____hardfp_pow$lsc) refers to dmul.o(.text) for __aeabi_dmul
    pow_x.o(i.____hardfp_pow$lsc) refers to dadd.o(.text) for __aeabi_dsub
    pow_x.o(i.____hardfp_pow$lsc) refers to qnan.o(.constdata) for __mathlib_zero
    pow_x.o(i.____hardfp_pow$lsc) refers to poly.o(i.__kernel_poly) for __kernel_poly
    pow_x.o(i.____hardfp_pow$lsc) refers to pow_x.o(.constdata) for .constdata
    pow_x.o(i.____hardfp_pow$lsc) refers to cdrcmple.o(.text) for __aeabi_cdrcmple
    pow_x.o(i.____hardfp_pow$lsc) refers to dscalb.o(.text) for __ARM_scalbn
    pow_x.o(i.____softfp_pow$lsc) refers (Special) to iusefp.o(.text) for __I$use$fp
    pow_x.o(i.____softfp_pow$lsc) refers to pow_x.o(i.____hardfp_pow$lsc) for ____hardfp_pow$lsc
    pow_x.o(i.__pow$lsc) refers (Special) to iusefp.o(.text) for __I$use$fp
    pow_x.o(i.__pow$lsc) refers to pow_x.o(i.____hardfp_pow$lsc) for ____hardfp_pow$lsc
    pow_x.o(.constdata) refers (Special) to iusefp.o(.text) for __I$use$fp
    sin.o(i.__hardfp_sin) refers (Special) to iusefp.o(.text) for __I$use$fp
    sin.o(i.__hardfp_sin) refers to errno.o(i.__set_errno) for __set_errno
    sin.o(i.__hardfp_sin) refers to dunder.o(i.__mathlib_dbl_invalid) for __mathlib_dbl_invalid
    sin.o(i.__hardfp_sin) refers to dunder.o(i.__mathlib_dbl_infnan) for __mathlib_dbl_infnan
    sin.o(i.__hardfp_sin) refers to rred.o(i.__ieee754_rem_pio2) for __ieee754_rem_pio2
    sin.o(i.__hardfp_sin) refers to cos_i.o(i.__kernel_cos) for __kernel_cos
    sin.o(i.__hardfp_sin) refers to sin_i.o(i.__kernel_sin) for __kernel_sin
    sin.o(i.__softfp_sin) refers (Special) to iusefp.o(.text) for __I$use$fp
    sin.o(i.__softfp_sin) refers to sin.o(i.__hardfp_sin) for __hardfp_sin
    sin.o(i.sin) refers (Special) to iusefp.o(.text) for __I$use$fp
    sin.o(i.sin) refers to sin.o(i.__hardfp_sin) for __hardfp_sin
    sin_x.o(i.____hardfp_sin$lsc) refers (Special) to iusefp.o(.text) for __I$use$fp
    sin_x.o(i.____hardfp_sin$lsc) refers to errno.o(i.__set_errno) for __set_errno
    sin_x.o(i.____hardfp_sin$lsc) refers to dunder.o(i.__mathlib_dbl_infnan) for __mathlib_dbl_infnan
    sin_x.o(i.____hardfp_sin$lsc) refers to rred.o(i.__ieee754_rem_pio2) for __ieee754_rem_pio2
    sin_x.o(i.____hardfp_sin$lsc) refers to cos_i.o(i.__kernel_cos) for __kernel_cos
    sin_x.o(i.____hardfp_sin$lsc) refers to sin_i.o(i.__kernel_sin) for __kernel_sin
    sin_x.o(i.____softfp_sin$lsc) refers (Special) to iusefp.o(.text) for __I$use$fp
    sin_x.o(i.____softfp_sin$lsc) refers to sin_x.o(i.____hardfp_sin$lsc) for ____hardfp_sin$lsc
    sin_x.o(i.__sin$lsc) refers (Special) to iusefp.o(.text) for __I$use$fp
    sin_x.o(i.__sin$lsc) refers to sin_x.o(i.____hardfp_sin$lsc) for ____hardfp_sin$lsc
    sinf.o(i.__hardfp_sinf) refers (Special) to iusefp.o(.text) for __I$use$fp
    sinf.o(i.__hardfp_sinf) refers to rredf.o(i.__mathlib_rredf2) for __mathlib_rredf2
    sinf.o(i.__hardfp_sinf) refers to fpclassifyf.o(i.__ARM_fpclassifyf) for __ARM_fpclassifyf
    sinf.o(i.__hardfp_sinf) refers to funder.o(i.__mathlib_flt_underflow) for __mathlib_flt_underflow
    sinf.o(i.__hardfp_sinf) refers to errno.o(i.__set_errno) for __set_errno
    sinf.o(i.__hardfp_sinf) refers to funder.o(i.__mathlib_flt_invalid) for __mathlib_flt_invalid
    sinf.o(i.__hardfp_sinf) refers to funder.o(i.__mathlib_flt_infnan) for __mathlib_flt_infnan
    sinf.o(i.__softfp_sinf) refers (Special) to iusefp.o(.text) for __I$use$fp
    sinf.o(i.__softfp_sinf) refers to sinf.o(i.__hardfp_sinf) for __hardfp_sinf
    sinf.o(i.sinf) refers (Special) to iusefp.o(.text) for __I$use$fp
    sinf.o(i.sinf) refers to sinf.o(i.__hardfp_sinf) for __hardfp_sinf
    sinf_x.o(i.____hardfp_sinf$lsc) refers (Special) to iusefp.o(.text) for __I$use$fp
    sinf_x.o(i.____hardfp_sinf$lsc) refers to rredf.o(i.__mathlib_rredf2) for __mathlib_rredf2
    sinf_x.o(i.____hardfp_sinf$lsc) refers to errno.o(i.__set_errno) for __set_errno
    sinf_x.o(i.____hardfp_sinf$lsc) refers to funder.o(i.__mathlib_flt_infnan) for __mathlib_flt_infnan
    sinf_x.o(i.____softfp_sinf$lsc) refers (Special) to iusefp.o(.text) for __I$use$fp
    sinf_x.o(i.____softfp_sinf$lsc) refers to sinf_x.o(i.____hardfp_sinf$lsc) for ____hardfp_sinf$lsc
    sinf_x.o(i.__sinf$lsc) refers (Special) to iusefp.o(.text) for __I$use$fp
    sinf_x.o(i.__sinf$lsc) refers to sinf_x.o(i.____hardfp_sinf$lsc) for ____hardfp_sinf$lsc
    sqrt.o(i.__hardfp_sqrt) refers (Special) to iusefp.o(.text) for __I$use$fp
    sqrt.o(i.__hardfp_sqrt) refers to dsqrt.o(.text) for _dsqrt
    sqrt.o(i.__hardfp_sqrt) refers to errno.o(i.__set_errno) for __set_errno
    sqrt.o(i.__softfp_sqrt) refers (Special) to iusefp.o(.text) for __I$use$fp
    sqrt.o(i.__softfp_sqrt) refers to dsqrt.o(.text) for _dsqrt
    sqrt.o(i.__softfp_sqrt) refers to errno.o(i.__set_errno) for __set_errno
    sqrt.o(i.sqrt) refers (Special) to iusefp.o(.text) for __I$use$fp
    sqrt.o(i.sqrt) refers to dsqrt.o(.text) for _dsqrt
    sqrt.o(i.sqrt) refers to errno.o(i.__set_errno) for __set_errno
    sqrt_x.o(i.____hardfp_sqrt$lsc) refers (Special) to iusefp.o(.text) for __I$use$fp
    sqrt_x.o(i.____hardfp_sqrt$lsc) refers to cdcmple.o(.text) for __aeabi_cdcmple
    sqrt_x.o(i.____hardfp_sqrt$lsc) refers to errno.o(i.__set_errno) for __set_errno
    sqrt_x.o(i.____hardfp_sqrt$lsc) refers to dsqrt.o(.text) for _dsqrt
    sqrt_x.o(i.____softfp_sqrt$lsc) refers (Special) to iusefp.o(.text) for __I$use$fp
    sqrt_x.o(i.____softfp_sqrt$lsc) refers to cdcmple.o(.text) for __aeabi_cdcmple
    sqrt_x.o(i.____softfp_sqrt$lsc) refers to errno.o(i.__set_errno) for __set_errno
    sqrt_x.o(i.____softfp_sqrt$lsc) refers to dsqrt.o(.text) for _dsqrt
    sqrt_x.o(i.__sqrt$lsc) refers (Special) to iusefp.o(.text) for __I$use$fp
    sqrt_x.o(i.__sqrt$lsc) refers to cdcmple.o(.text) for __aeabi_cdcmple
    sqrt_x.o(i.__sqrt$lsc) refers to errno.o(i.__set_errno) for __set_errno
    sqrt_x.o(i.__sqrt$lsc) refers to dsqrt.o(.text) for _dsqrt
    sqrtf.o(i.__hardfp_sqrtf) refers (Special) to iusefp.o(.text) for __I$use$fp
    sqrtf.o(i.__hardfp_sqrtf) refers to errno.o(i.__set_errno) for __set_errno
    sqrtf.o(i.__softfp_sqrtf) refers (Special) to iusefp.o(.text) for __I$use$fp
    sqrtf.o(i.__softfp_sqrtf) refers to errno.o(i.__set_errno) for __set_errno
    sqrtf.o(i.sqrtf) refers (Special) to iusefp.o(.text) for __I$use$fp
    sqrtf.o(i.sqrtf) refers to errno.o(i.__set_errno) for __set_errno
    sqrtf_x.o(i.____hardfp_sqrtf$lsc) refers (Special) to iusefp.o(.text) for __I$use$fp
    sqrtf_x.o(i.____hardfp_sqrtf$lsc) refers to errno.o(i.__set_errno) for __set_errno
    sqrtf_x.o(i.____softfp_sqrtf$lsc) refers (Special) to iusefp.o(.text) for __I$use$fp
    sqrtf_x.o(i.____softfp_sqrtf$lsc) refers to errno.o(i.__set_errno) for __set_errno
    sqrtf_x.o(i.__sqrtf$lsc) refers (Special) to iusefp.o(.text) for __I$use$fp
    sqrtf_x.o(i.__sqrtf$lsc) refers to errno.o(i.__set_errno) for __set_errno
    entry.o(.ARM.Collect$$$$00000000) refers (Special) to entry10a.o(.ARM.Collect$$$$0000000D) for __rt_final_cpp
    entry.o(.ARM.Collect$$$$00000000) refers (Special) to entry11a.o(.ARM.Collect$$$$0000000F) for __rt_final_exit
    entry.o(.ARM.Collect$$$$00000000) refers (Special) to entry7b.o(.ARM.Collect$$$$00000008) for _main_clock
    entry.o(.ARM.Collect$$$$00000000) refers (Special) to entry8b.o(.ARM.Collect$$$$0000000A) for _main_cpp_init
    entry.o(.ARM.Collect$$$$00000000) refers (Special) to entry9a.o(.ARM.Collect$$$$0000000B) for _main_init
    entry.o(.ARM.Collect$$$$00000000) refers (Special) to entry5.o(.ARM.Collect$$$$00000004) for _main_scatterload
    entry.o(.ARM.Collect$$$$00000000) refers (Special) to entry2.o(.ARM.Collect$$$$00000001) for _main_stk
    ldiv.o(.text) refers to uldiv.o(.text) for __aeabi_uldivmod
    printfb.o(i.__0fprintf$bare) refers to printfb.o(i._printf_core) for _printf_core
    printfb.o(i.__0fprintf$bare) refers to usart.o(.text) for fputc
    printfb.o(i.__0printf$bare) refers to printfb.o(i._printf_core) for _printf_core
    printfb.o(i.__0printf$bare) refers to usart.o(.text) for fputc
    printfb.o(i.__0printf$bare) refers to usart.o(.data) for __stdout
    printfb.o(i.__0snprintf$bare) refers to printfb.o(i._printf_core) for _printf_core
    printfb.o(i.__0snprintf$bare) refers to printfb.o(i._snputc) for _snputc
    printfb.o(i.__0sprintf$bare) refers to printfb.o(i._printf_core) for _printf_core
    printfb.o(i.__0sprintf$bare) refers to printfb.o(i._sputc) for _sputc
    printfb.o(i.__0vfprintf$bare) refers to printfb.o(i._printf_core) for _printf_core
    printfb.o(i.__0vfprintf$bare) refers to usart.o(.text) for fputc
    printfb.o(i.__0vprintf$bare) refers to printfb.o(i._printf_core) for _printf_core
    printfb.o(i.__0vprintf$bare) refers to usart.o(.text) for fputc
    printfb.o(i.__0vprintf$bare) refers to usart.o(.data) for __stdout
    printfb.o(i.__0vsnprintf$bare) refers to printfb.o(i._printf_core) for _printf_core
    printfb.o(i.__0vsnprintf$bare) refers to printfb.o(i._snputc) for _snputc
    printfb.o(i.__0vsprintf$bare) refers to printfb.o(i._printf_core) for _printf_core
    printfb.o(i.__0vsprintf$bare) refers to printfb.o(i._sputc) for _sputc
    printf0.o(i.__0fprintf$0) refers to printf0.o(i._printf_core) for _printf_core
    printf0.o(i.__0fprintf$0) refers to usart.o(.text) for fputc
    printf0.o(i.__0printf$0) refers to printf0.o(i._printf_core) for _printf_core
    printf0.o(i.__0printf$0) refers to usart.o(.text) for fputc
    printf0.o(i.__0printf$0) refers to usart.o(.data) for __stdout
    printf0.o(i.__0snprintf$0) refers to printf0.o(i._printf_core) for _printf_core
    printf0.o(i.__0snprintf$0) refers to printf0.o(i._snputc) for _snputc
    printf0.o(i.__0sprintf$0) refers to printf0.o(i._printf_core) for _printf_core
    printf0.o(i.__0sprintf$0) refers to printf0.o(i._sputc) for _sputc
    printf0.o(i.__0vfprintf$0) refers to printf0.o(i._printf_core) for _printf_core
    printf0.o(i.__0vfprintf$0) refers to usart.o(.text) for fputc
    printf0.o(i.__0vprintf$0) refers to printf0.o(i._printf_core) for _printf_core
    printf0.o(i.__0vprintf$0) refers to usart.o(.text) for fputc
    printf0.o(i.__0vprintf$0) refers to usart.o(.data) for __stdout
    printf0.o(i.__0vsnprintf$0) refers to printf0.o(i._printf_core) for _printf_core
    printf0.o(i.__0vsnprintf$0) refers to printf0.o(i._snputc) for _snputc
    printf0.o(i.__0vsprintf$0) refers to printf0.o(i._printf_core) for _printf_core
    printf0.o(i.__0vsprintf$0) refers to printf0.o(i._sputc) for _sputc
    printf1.o(i.__0fprintf$1) refers to printf1.o(i._printf_core) for _printf_core
    printf1.o(i.__0fprintf$1) refers to usart.o(.text) for fputc
    printf1.o(i.__0printf$1) refers to printf1.o(i._printf_core) for _printf_core
    printf1.o(i.__0printf$1) refers to usart.o(.text) for fputc
    printf1.o(i.__0printf$1) refers to usart.o(.data) for __stdout
    printf1.o(i.__0snprintf$1) refers to printf1.o(i._printf_core) for _printf_core
    printf1.o(i.__0snprintf$1) refers to printf1.o(i._snputc) for _snputc
    printf1.o(i.__0sprintf$1) refers to printf1.o(i._printf_core) for _printf_core
    printf1.o(i.__0sprintf$1) refers to printf1.o(i._sputc) for _sputc
    printf1.o(i.__0vfprintf$1) refers to printf1.o(i._printf_core) for _printf_core
    printf1.o(i.__0vfprintf$1) refers to usart.o(.text) for fputc
    printf1.o(i.__0vprintf$1) refers to printf1.o(i._printf_core) for _printf_core
    printf1.o(i.__0vprintf$1) refers to usart.o(.text) for fputc
    printf1.o(i.__0vprintf$1) refers to usart.o(.data) for __stdout
    printf1.o(i.__0vsnprintf$1) refers to printf1.o(i._printf_core) for _printf_core
    printf1.o(i.__0vsnprintf$1) refers to printf1.o(i._snputc) for _snputc
    printf1.o(i.__0vsprintf$1) refers to printf1.o(i._printf_core) for _printf_core
    printf1.o(i.__0vsprintf$1) refers to printf1.o(i._sputc) for _sputc
    printf1.o(i._printf_core) refers to uidiv.o(.text) for __aeabi_uidivmod
    printf2.o(i.__0fprintf$2) refers to printf2.o(i._printf_core) for _printf_core
    printf2.o(i.__0fprintf$2) refers to usart.o(.text) for fputc
    printf2.o(i.__0printf$2) refers to printf2.o(i._printf_core) for _printf_core
    printf2.o(i.__0printf$2) refers to usart.o(.text) for fputc
    printf2.o(i.__0printf$2) refers to usart.o(.data) for __stdout
    printf2.o(i.__0snprintf$2) refers to printf2.o(i._printf_core) for _printf_core
    printf2.o(i.__0snprintf$2) refers to printf2.o(i._snputc) for _snputc
    printf2.o(i.__0sprintf$2) refers to printf2.o(i._printf_core) for _printf_core
    printf2.o(i.__0sprintf$2) refers to printf2.o(i._sputc) for _sputc
    printf2.o(i.__0vfprintf$2) refers to printf2.o(i._printf_core) for _printf_core
    printf2.o(i.__0vfprintf$2) refers to usart.o(.text) for fputc
    printf2.o(i.__0vprintf$2) refers to printf2.o(i._printf_core) for _printf_core
    printf2.o(i.__0vprintf$2) refers to usart.o(.text) for fputc
    printf2.o(i.__0vprintf$2) refers to usart.o(.data) for __stdout
    printf2.o(i.__0vsnprintf$2) refers to printf2.o(i._printf_core) for _printf_core
    printf2.o(i.__0vsnprintf$2) refers to printf2.o(i._snputc) for _snputc
    printf2.o(i.__0vsprintf$2) refers to printf2.o(i._printf_core) for _printf_core
    printf2.o(i.__0vsprintf$2) refers to printf2.o(i._sputc) for _sputc
    printf3.o(i.__0fprintf$3) refers to printf3.o(i._printf_core) for _printf_core
    printf3.o(i.__0fprintf$3) refers to usart.o(.text) for fputc
    printf3.o(i.__0printf$3) refers to printf3.o(i._printf_core) for _printf_core
    printf3.o(i.__0printf$3) refers to usart.o(.text) for fputc
    printf3.o(i.__0printf$3) refers to usart.o(.data) for __stdout
    printf3.o(i.__0snprintf$3) refers to printf3.o(i._printf_core) for _printf_core
    printf3.o(i.__0snprintf$3) refers to printf3.o(i._snputc) for _snputc
    printf3.o(i.__0sprintf$3) refers to printf3.o(i._printf_core) for _printf_core
    printf3.o(i.__0sprintf$3) refers to printf3.o(i._sputc) for _sputc
    printf3.o(i.__0vfprintf$3) refers to printf3.o(i._printf_core) for _printf_core
    printf3.o(i.__0vfprintf$3) refers to usart.o(.text) for fputc
    printf3.o(i.__0vprintf$3) refers to printf3.o(i._printf_core) for _printf_core
    printf3.o(i.__0vprintf$3) refers to usart.o(.text) for fputc
    printf3.o(i.__0vprintf$3) refers to usart.o(.data) for __stdout
    printf3.o(i.__0vsnprintf$3) refers to printf3.o(i._printf_core) for _printf_core
    printf3.o(i.__0vsnprintf$3) refers to printf3.o(i._snputc) for _snputc
    printf3.o(i.__0vsprintf$3) refers to printf3.o(i._printf_core) for _printf_core
    printf3.o(i.__0vsprintf$3) refers to printf3.o(i._sputc) for _sputc
    printf3.o(i._printf_core) refers to uidiv.o(.text) for __aeabi_uidivmod
    printf4.o(i.__0fprintf$4) refers to printf4.o(i._printf_core) for _printf_core
    printf4.o(i.__0fprintf$4) refers to usart.o(.text) for fputc
    printf4.o(i.__0printf$4) refers to printf4.o(i._printf_core) for _printf_core
    printf4.o(i.__0printf$4) refers to usart.o(.text) for fputc
    printf4.o(i.__0printf$4) refers to usart.o(.data) for __stdout
    printf4.o(i.__0snprintf$4) refers to printf4.o(i._printf_core) for _printf_core
    printf4.o(i.__0snprintf$4) refers to printf4.o(i._snputc) for _snputc
    printf4.o(i.__0sprintf$4) refers to printf4.o(i._printf_core) for _printf_core
    printf4.o(i.__0sprintf$4) refers to printf4.o(i._sputc) for _sputc
    printf4.o(i.__0vfprintf$4) refers to printf4.o(i._printf_core) for _printf_core
    printf4.o(i.__0vfprintf$4) refers to usart.o(.text) for fputc
    printf4.o(i.__0vprintf$4) refers to printf4.o(i._printf_core) for _printf_core
    printf4.o(i.__0vprintf$4) refers to usart.o(.text) for fputc
    printf4.o(i.__0vprintf$4) refers to usart.o(.data) for __stdout
    printf4.o(i.__0vsnprintf$4) refers to printf4.o(i._printf_core) for _printf_core
    printf4.o(i.__0vsnprintf$4) refers to printf4.o(i._snputc) for _snputc
    printf4.o(i.__0vsprintf$4) refers to printf4.o(i._printf_core) for _printf_core
    printf4.o(i.__0vsprintf$4) refers to printf4.o(i._sputc) for _sputc
    printf4.o(i._printf_core) refers to uldiv.o(.text) for __aeabi_uldivmod
    printf5.o(i.__0fprintf$5) refers to printf5.o(i._printf_core) for _printf_core
    printf5.o(i.__0fprintf$5) refers to usart.o(.text) for fputc
    printf5.o(i.__0printf$5) refers to printf5.o(i._printf_core) for _printf_core
    printf5.o(i.__0printf$5) refers to usart.o(.text) for fputc
    printf5.o(i.__0printf$5) refers to usart.o(.data) for __stdout
    printf5.o(i.__0snprintf$5) refers to printf5.o(i._printf_core) for _printf_core
    printf5.o(i.__0snprintf$5) refers to printf5.o(i._snputc) for _snputc
    printf5.o(i.__0sprintf$5) refers to printf5.o(i._printf_core) for _printf_core
    printf5.o(i.__0sprintf$5) refers to printf5.o(i._sputc) for _sputc
    printf5.o(i.__0vfprintf$5) refers to printf5.o(i._printf_core) for _printf_core
    printf5.o(i.__0vfprintf$5) refers to usart.o(.text) for fputc
    printf5.o(i.__0vprintf$5) refers to printf5.o(i._printf_core) for _printf_core
    printf5.o(i.__0vprintf$5) refers to usart.o(.text) for fputc
    printf5.o(i.__0vprintf$5) refers to usart.o(.data) for __stdout
    printf5.o(i.__0vsnprintf$5) refers to printf5.o(i._printf_core) for _printf_core
    printf5.o(i.__0vsnprintf$5) refers to printf5.o(i._snputc) for _snputc
    printf5.o(i.__0vsprintf$5) refers to printf5.o(i._printf_core) for _printf_core
    printf5.o(i.__0vsprintf$5) refers to printf5.o(i._sputc) for _sputc
    printf5.o(i._printf_core) refers to uldiv.o(.text) for __aeabi_uldivmod
    printf6.o(i.__0fprintf$6) refers to printf6.o(i._printf_core) for _printf_core
    printf6.o(i.__0fprintf$6) refers to usart.o(.text) for fputc
    printf6.o(i.__0printf$6) refers to printf6.o(i._printf_core) for _printf_core
    printf6.o(i.__0printf$6) refers to usart.o(.text) for fputc
    printf6.o(i.__0printf$6) refers to usart.o(.data) for __stdout
    printf6.o(i.__0snprintf$6) refers to printf6.o(i._printf_core) for _printf_core
    printf6.o(i.__0snprintf$6) refers to printf6.o(i._snputc) for _snputc
    printf6.o(i.__0sprintf$6) refers to printf6.o(i._printf_core) for _printf_core
    printf6.o(i.__0sprintf$6) refers to printf6.o(i._sputc) for _sputc
    printf6.o(i.__0vfprintf$6) refers to printf6.o(i._printf_core) for _printf_core
    printf6.o(i.__0vfprintf$6) refers to usart.o(.text) for fputc
    printf6.o(i.__0vprintf$6) refers to printf6.o(i._printf_core) for _printf_core
    printf6.o(i.__0vprintf$6) refers to usart.o(.text) for fputc
    printf6.o(i.__0vprintf$6) refers to usart.o(.data) for __stdout
    printf6.o(i.__0vsnprintf$6) refers to printf6.o(i._printf_core) for _printf_core
    printf6.o(i.__0vsnprintf$6) refers to printf6.o(i._snputc) for _snputc
    printf6.o(i.__0vsprintf$6) refers to printf6.o(i._printf_core) for _printf_core
    printf6.o(i.__0vsprintf$6) refers to printf6.o(i._sputc) for _sputc
    printf6.o(i._printf_core) refers to printf6.o(i._printf_pre_padding) for _printf_pre_padding
    printf6.o(i._printf_core) refers to uidiv.o(.text) for __aeabi_uidivmod
    printf6.o(i._printf_core) refers to printf6.o(i._printf_post_padding) for _printf_post_padding
    printf7.o(i.__0fprintf$7) refers to printf7.o(i._printf_core) for _printf_core
    printf7.o(i.__0fprintf$7) refers to usart.o(.text) for fputc
    printf7.o(i.__0printf$7) refers to printf7.o(i._printf_core) for _printf_core
    printf7.o(i.__0printf$7) refers to usart.o(.text) for fputc
    printf7.o(i.__0printf$7) refers to usart.o(.data) for __stdout
    printf7.o(i.__0snprintf$7) refers to printf7.o(i._printf_core) for _printf_core
    printf7.o(i.__0snprintf$7) refers to printf7.o(i._snputc) for _snputc
    printf7.o(i.__0sprintf$7) refers to printf7.o(i._printf_core) for _printf_core
    printf7.o(i.__0sprintf$7) refers to printf7.o(i._sputc) for _sputc
    printf7.o(i.__0vfprintf$7) refers to printf7.o(i._printf_core) for _printf_core
    printf7.o(i.__0vfprintf$7) refers to usart.o(.text) for fputc
    printf7.o(i.__0vprintf$7) refers to printf7.o(i._printf_core) for _printf_core
    printf7.o(i.__0vprintf$7) refers to usart.o(.text) for fputc
    printf7.o(i.__0vprintf$7) refers to usart.o(.data) for __stdout
    printf7.o(i.__0vsnprintf$7) refers to printf7.o(i._printf_core) for _printf_core
    printf7.o(i.__0vsnprintf$7) refers to printf7.o(i._snputc) for _snputc
    printf7.o(i.__0vsprintf$7) refers to printf7.o(i._printf_core) for _printf_core
    printf7.o(i.__0vsprintf$7) refers to printf7.o(i._sputc) for _sputc
    printf7.o(i._printf_core) refers to printf7.o(i._printf_pre_padding) for _printf_pre_padding
    printf7.o(i._printf_core) refers to uldiv.o(.text) for __aeabi_uldivmod
    printf7.o(i._printf_core) refers to printf7.o(i._printf_post_padding) for _printf_post_padding
    printf8.o(i.__0fprintf$8) refers to printf8.o(i._printf_core) for _printf_core
    printf8.o(i.__0fprintf$8) refers to usart.o(.text) for fputc
    printf8.o(i.__0printf$8) refers to printf8.o(i._printf_core) for _printf_core
    printf8.o(i.__0printf$8) refers to usart.o(.text) for fputc
    printf8.o(i.__0printf$8) refers to usart.o(.data) for __stdout
    printf8.o(i.__0snprintf$8) refers to printf8.o(i._printf_core) for _printf_core
    printf8.o(i.__0snprintf$8) refers to printf8.o(i._snputc) for _snputc
    printf8.o(i.__0sprintf$8) refers to printf8.o(i._printf_core) for _printf_core
    printf8.o(i.__0sprintf$8) refers to printf8.o(i._sputc) for _sputc
    printf8.o(i.__0vfprintf$8) refers to printf8.o(i._printf_core) for _printf_core
    printf8.o(i.__0vfprintf$8) refers to usart.o(.text) for fputc
    printf8.o(i.__0vprintf$8) refers to printf8.o(i._printf_core) for _printf_core
    printf8.o(i.__0vprintf$8) refers to usart.o(.text) for fputc
    printf8.o(i.__0vprintf$8) refers to usart.o(.data) for __stdout
    printf8.o(i.__0vsnprintf$8) refers to printf8.o(i._printf_core) for _printf_core
    printf8.o(i.__0vsnprintf$8) refers to printf8.o(i._snputc) for _snputc
    printf8.o(i.__0vsprintf$8) refers to printf8.o(i._printf_core) for _printf_core
    printf8.o(i.__0vsprintf$8) refers to printf8.o(i._sputc) for _sputc
    printf8.o(i._printf_core) refers to printf8.o(i._printf_pre_padding) for _printf_pre_padding
    printf8.o(i._printf_core) refers to uldiv.o(.text) for __aeabi_uldivmod
    printf8.o(i._printf_core) refers to printf8.o(i._printf_post_padding) for _printf_post_padding
    printfa.o(i.__0fprintf) refers (Special) to iusefp.o(.text) for __I$use$fp
    printfa.o(i.__0fprintf) refers to printfa.o(i._printf_core) for _printf_core
    printfa.o(i.__0fprintf) refers to usart.o(.text) for fputc
    printfa.o(i.__0printf) refers (Special) to iusefp.o(.text) for __I$use$fp
    printfa.o(i.__0printf) refers to printfa.o(i._printf_core) for _printf_core
    printfa.o(i.__0printf) refers to usart.o(.text) for fputc
    printfa.o(i.__0printf) refers to usart.o(.data) for __stdout
    printfa.o(i.__0snprintf) refers (Special) to iusefp.o(.text) for __I$use$fp
    printfa.o(i.__0snprintf) refers to printfa.o(i._printf_core) for _printf_core
    printfa.o(i.__0snprintf) refers to printfa.o(i._snputc) for _snputc
    printfa.o(i.__0sprintf) refers (Special) to iusefp.o(.text) for __I$use$fp
    printfa.o(i.__0sprintf) refers to printfa.o(i._printf_core) for _printf_core
    printfa.o(i.__0sprintf) refers to printfa.o(i._sputc) for _sputc
    printfa.o(i.__0vfprintf) refers (Special) to iusefp.o(.text) for __I$use$fp
    printfa.o(i.__0vfprintf) refers to printfa.o(i._printf_core) for _printf_core
    printfa.o(i.__0vfprintf) refers to usart.o(.text) for fputc
    printfa.o(i.__0vprintf) refers (Special) to iusefp.o(.text) for __I$use$fp
    printfa.o(i.__0vprintf) refers to printfa.o(i._printf_core) for _printf_core
    printfa.o(i.__0vprintf) refers to usart.o(.text) for fputc
    printfa.o(i.__0vprintf) refers to usart.o(.data) for __stdout
    printfa.o(i.__0vsnprintf) refers (Special) to iusefp.o(.text) for __I$use$fp
    printfa.o(i.__0vsnprintf) refers to printfa.o(i._printf_core) for _printf_core
    printfa.o(i.__0vsnprintf) refers to printfa.o(i._snputc) for _snputc
    printfa.o(i.__0vsprintf) refers (Special) to iusefp.o(.text) for __I$use$fp
    printfa.o(i.__0vsprintf) refers to printfa.o(i._printf_core) for _printf_core
    printfa.o(i.__0vsprintf) refers to printfa.o(i._sputc) for _sputc
    printfa.o(i._fp_digits) refers (Special) to iusefp.o(.text) for __I$use$fp
    printfa.o(i._fp_digits) refers to dmul.o(.text) for __aeabi_dmul
    printfa.o(i._fp_digits) refers to ddiv.o(.text) for __aeabi_ddiv
    printfa.o(i._fp_digits) refers to cdrcmple.o(.text) for __aeabi_cdrcmple
    printfa.o(i._fp_digits) refers to dadd.o(.text) for __aeabi_dadd
    printfa.o(i._fp_digits) refers to dfixul.o(.text) for __aeabi_d2ulz
    printfa.o(i._fp_digits) refers to uldiv.o(.text) for __aeabi_uldivmod
    printfa.o(i._printf_core) refers (Special) to iusefp.o(.text) for __I$use$fp
    printfa.o(i._printf_core) refers to printfa.o(i._printf_pre_padding) for _printf_pre_padding
    printfa.o(i._printf_core) refers to uldiv.o(.text) for __aeabi_uldivmod
    printfa.o(i._printf_core) refers to printfa.o(i._printf_post_padding) for _printf_post_padding
    printfa.o(i._printf_core) refers to printfa.o(i._fp_digits) for _fp_digits
    printfa.o(i._printf_core) refers to uidiv.o(.text) for __aeabi_uidivmod
    printfa.o(i._printf_post_padding) refers (Special) to iusefp.o(.text) for __I$use$fp
    printfa.o(i._printf_pre_padding) refers (Special) to iusefp.o(.text) for __I$use$fp
    printfa.o(i._snputc) refers (Special) to iusefp.o(.text) for __I$use$fp
    printfa.o(i._sputc) refers (Special) to iusefp.o(.text) for __I$use$fp
    malloc.o(i.free) refers to mvars.o(.data) for __microlib_freelist
    malloc.o(i.malloc) refers to mvars.o(.data) for __microlib_freelist_initialised
    malloc.o(i.malloc) refers to mvars.o(.data) for __microlib_freelist
    malloc.o(i.malloc) refers to startup_stm32f40_41xxx.o(HEAP) for __heap_base
    mallocr.o(i.__free$realloc) refers to mvars.o(.data) for __microlib_freelist
    mallocr.o(i.__malloc$realloc) refers to mallocr.o(i.internal_alloc) for internal_alloc
    mallocr.o(i.__malloc$realloc) refers to mvars.o(.data) for __microlib_freelist_initialised
    mallocr.o(i.__malloc$realloc) refers to startup_stm32f40_41xxx.o(HEAP) for __heap_base
    mallocr.o(i.__malloc$realloc) refers to mvars.o(.data) for __microlib_freelist
    mallocr.o(i.internal_alloc) refers to memmovea.o(.text) for __aeabi_memcpy
    mallocr.o(i.internal_alloc) refers to mvars.o(.data) for __microlib_freelist
    mallocr.o(i.realloc) refers to mallocr.o(i.__free$realloc) for __free$realloc
    mallocr.o(i.realloc) refers to mallocr.o(i.internal_alloc) for internal_alloc
    mallocr.o(i.realloc) refers to mallocr.o(i.__malloc$realloc) for __malloc$realloc
    mallocr.o(i.realloc) refers to mvars.o(.data) for __microlib_freelist
    malloca.o(i.__aligned_malloc) refers to mvars.o(.data) for __microlib_freelist_initialised
    malloca.o(i.__aligned_malloc) refers to mvars.o(.data) for __microlib_freelist
    malloca.o(i.__aligned_malloc) refers to startup_stm32f40_41xxx.o(HEAP) for __heap_base
    malloca.o(i.__free$memalign) refers to mvars.o(.data) for __microlib_freelist
    malloca.o(i.__malloc$memalign) refers to malloca.o(i.__aligned_malloc) for __aligned_malloc
    mallocra.o(i.__aligned_malloc$realloc) refers to mallocra.o(i.internal_alloc) for internal_alloc
    mallocra.o(i.__aligned_malloc$realloc) refers to mvars.o(.data) for __microlib_freelist_initialised
    mallocra.o(i.__aligned_malloc$realloc) refers to startup_stm32f40_41xxx.o(HEAP) for __heap_base
    mallocra.o(i.__aligned_malloc$realloc) refers to mvars.o(.data) for __microlib_freelist
    mallocra.o(i.__free$realloc$memalign) refers to mvars.o(.data) for __microlib_freelist
    mallocra.o(i.__malloc$realloc$memalign) refers to mallocra.o(i.__aligned_malloc$realloc) for __aligned_malloc$realloc
    mallocra.o(i.__realloc$memalign) refers to mallocra.o(i.__free$realloc$memalign) for __free$realloc$memalign
    mallocra.o(i.__realloc$memalign) refers to mallocra.o(i.internal_alloc) for internal_alloc
    mallocra.o(i.__realloc$memalign) refers to mallocra.o(i.__malloc$realloc$memalign) for __malloc$realloc$memalign
    mallocra.o(i.__realloc$memalign) refers to mvars.o(.data) for __microlib_freelist
    mallocra.o(i.internal_alloc) refers to memmovea.o(.text) for __aeabi_memcpy
    mallocra.o(i.internal_alloc) refers to mvars.o(.data) for __microlib_freelist
    fadd.o(.text) refers (Special) to iusefp.o(.text) for __I$use$fp
    fadd.o(.text) refers to fepilogue.o(.text) for _float_epilogue
    fmul.o(.text) refers (Special) to iusefp.o(.text) for __I$use$fp
    fdiv.o(.text) refers (Special) to iusefp.o(.text) for __I$use$fp
    fdiv.o(.text) refers to fepilogue.o(.text) for _float_round
    fscalb.o(.text) refers (Special) to iusefp.o(.text) for __I$use$fp
    dadd.o(.text) refers (Special) to iusefp.o(.text) for __I$use$fp
    dadd.o(.text) refers to llshl.o(.text) for __aeabi_llsl
    dadd.o(.text) refers to llsshr.o(.text) for __aeabi_lasr
    dadd.o(.text) refers to depilogue.o(.text) for _double_epilogue
    dmul.o(.text) refers (Special) to iusefp.o(.text) for __I$use$fp
    dmul.o(.text) refers to depilogue.o(.text) for _double_epilogue
    ddiv.o(.text) refers (Special) to iusefp.o(.text) for __I$use$fp
    ddiv.o(.text) refers to depilogue.o(.text) for _double_round
    dscalb.o(.text) refers (Special) to iusefp.o(.text) for __I$use$fp
    fflti.o(.text) refers (Special) to iusefp.o(.text) for __I$use$fp
    fflti.o(.text) refers to fepilogue.o(.text) for _float_epilogue
    ffltui.o(.text) refers (Special) to iusefp.o(.text) for __I$use$fp
    ffltui.o(.text) refers to fepilogue.o(.text) for _float_epilogue
    ffltl.o(.text) refers (Special) to iusefp.o(.text) for __I$use$fp
    ffltl.o(.text) refers to fepilogue.o(.text) for _float_epilogue
    dflti.o(.text) refers (Special) to iusefp.o(.text) for __I$use$fp
    dflti.o(.text) refers to depilogue.o(.text) for _double_epilogue
    dfltui.o(.text) refers (Special) to iusefp.o(.text) for __I$use$fp
    dfltui.o(.text) refers to depilogue.o(.text) for _double_epilogue
    ffixi.o(.text) refers (Special) to iusefp.o(.text) for __I$use$fp
    ffixl.o(.text) refers (Special) to iusefp.o(.text) for __I$use$fp
    ffixl.o(.text) refers to llshl.o(.text) for __aeabi_llsl
    dfixi.o(.text) refers (Special) to iusefp.o(.text) for __I$use$fp
    dfixi.o(.text) refers to llushr.o(.text) for __aeabi_llsr
    f2d.o(.text) refers (Special) to iusefp.o(.text) for __I$use$fp
    cdcmple.o(.text) refers (Special) to iusefp.o(.text) for __I$use$fp
    cdrcmple.o(.text) refers (Special) to iusefp.o(.text) for __I$use$fp
    d2f.o(.text) refers (Special) to iusefp.o(.text) for __I$use$fp
    d2f.o(.text) refers to fepilogue.o(.text) for _float_round
    cfcmple.o(.text) refers (Special) to iusefp.o(.text) for __I$use$fp
    cfrcmple.o(.text) refers (Special) to iusefp.o(.text) for __I$use$fp
    cos_i.o(i.__kernel_cos) refers (Special) to iusefp.o(.text) for __I$use$fp
    cos_i.o(i.__kernel_cos) refers to dfixi.o(.text) for __aeabi_d2iz
    cos_i.o(i.__kernel_cos) refers to dmul.o(.text) for __aeabi_dmul
    cos_i.o(i.__kernel_cos) refers to poly.o(i.__kernel_poly) for __kernel_poly
    cos_i.o(i.__kernel_cos) refers to dadd.o(.text) for __aeabi_dsub
    cos_i.o(i.__kernel_cos) refers to cos_i.o(.constdata) for .constdata
    cos_i.o(.constdata) refers (Special) to iusefp.o(.text) for __I$use$fp
    dunder.o(i.__mathlib_dbl_divzero) refers to ddiv.o(.text) for __aeabi_ddiv
    dunder.o(i.__mathlib_dbl_infnan) refers to dadd.o(.text) for __aeabi_dadd
    dunder.o(i.__mathlib_dbl_infnan2) refers to dadd.o(.text) for __aeabi_dadd
    dunder.o(i.__mathlib_dbl_invalid) refers to ddiv.o(.text) for __aeabi_ddiv
    dunder.o(i.__mathlib_dbl_overflow) refers to dmul.o(.text) for __aeabi_dmul
    dunder.o(i.__mathlib_dbl_posinfnan) refers to dmul.o(.text) for __aeabi_dmul
    dunder.o(i.__mathlib_dbl_underflow) refers to dmul.o(.text) for __aeabi_dmul
    fpclassify.o(i.__ARM_fpclassify) refers (Special) to iusefp.o(.text) for __I$use$fp
    fpclassifyf.o(i.__ARM_fpclassifyf) refers (Special) to iusefp.o(.text) for __I$use$fp
    poly.o(i.__kernel_poly) refers (Special) to iusefp.o(.text) for __I$use$fp
    poly.o(i.__kernel_poly) refers to dmul.o(.text) for __aeabi_dmul
    poly.o(i.__kernel_poly) refers to dadd.o(.text) for __aeabi_dadd
    qnan.o(.constdata) refers (Special) to iusefp.o(.text) for __I$use$fp
    rred.o(i.__ieee754_rem_pio2) refers (Special) to iusefp.o(.text) for __I$use$fp
    rred.o(i.__ieee754_rem_pio2) refers to dadd.o(.text) for __aeabi_dsub
    rred.o(i.__ieee754_rem_pio2) refers to fabs.o(i.fabs) for fabs
    rred.o(i.__ieee754_rem_pio2) refers to dmul.o(.text) for __aeabi_dmul
    rred.o(i.__ieee754_rem_pio2) refers to dfixi.o(.text) for __aeabi_d2iz
    rred.o(i.__ieee754_rem_pio2) refers to dflti.o(.text) for __aeabi_i2d
    rred.o(i.__ieee754_rem_pio2) refers to dfltui.o(.text) for __aeabi_ui2d
    rred.o(i.__ieee754_rem_pio2) refers to rred.o(.constdata) for .constdata
    rred.o(i.__use_accurate_range_reduction) refers (Special) to iusefp.o(.text) for __I$use$fp
    rred.o(.constdata) refers (Special) to iusefp.o(.text) for __I$use$fp
    rredf.o(i.__mathlib_rredf2) refers (Special) to iusefp.o(.text) for __I$use$fp
    rredf.o(i.__mathlib_rredf2) refers to rredf.o(.constdata) for .constdata
    rredf.o(.constdata) refers (Special) to iusefp.o(.text) for __I$use$fp
    sin_i.o(i.__kernel_sin) refers (Special) to iusefp.o(.text) for __I$use$fp
    sin_i.o(i.__kernel_sin) refers to fpclassify.o(i.__ARM_fpclassify) for __ARM_fpclassify
    sin_i.o(i.__kernel_sin) refers to dunder.o(i.__mathlib_dbl_underflow) for __mathlib_dbl_underflow
    sin_i.o(i.__kernel_sin) refers to dmul.o(.text) for __aeabi_dmul
    sin_i.o(i.__kernel_sin) refers to poly.o(i.__kernel_poly) for __kernel_poly
    sin_i.o(i.__kernel_sin) refers to dadd.o(.text) for __aeabi_dsub
    sin_i.o(i.__kernel_sin) refers to sin_i.o(.constdata) for .constdata
    sin_i.o(.constdata) refers (Special) to iusefp.o(.text) for __I$use$fp
    sin_i_x.o(i.____kernel_sin$lsc) refers (Special) to iusefp.o(.text) for __I$use$fp
    sin_i_x.o(i.____kernel_sin$lsc) refers to dmul.o(.text) for __aeabi_dmul
    sin_i_x.o(i.____kernel_sin$lsc) refers to poly.o(i.__kernel_poly) for __kernel_poly
    sin_i_x.o(i.____kernel_sin$lsc) refers to dadd.o(.text) for __aeabi_dsub
    sin_i_x.o(i.____kernel_sin$lsc) refers to sin_i_x.o(.constdata) for .constdata
    sin_i_x.o(.constdata) refers (Special) to iusefp.o(.text) for __I$use$fp
    entry2.o(.ARM.Collect$$$$00000001) refers to entry2.o(.ARM.Collect$$$$00002712) for __lit__00000000
    entry2.o(.ARM.Collect$$$$00002712) refers to startup_stm32f40_41xxx.o(STACK) for __initial_sp
    entry2.o(__vectab_stack_and_reset_area) refers to startup_stm32f40_41xxx.o(STACK) for __initial_sp
    entry2.o(__vectab_stack_and_reset_area) refers to entry.o(.ARM.Collect$$$$00000000) for __main
    entry5.o(.ARM.Collect$$$$00000004) refers to init.o(.text) for __scatterload
    entry9a.o(.ARM.Collect$$$$0000000B) refers to main.o(.text) for main
    entry9b.o(.ARM.Collect$$$$0000000C) refers to main.o(.text) for main
    uldiv.o(.text) refers to llushr.o(.text) for __aeabi_llsr
    uldiv.o(.text) refers to llshl.o(.text) for __aeabi_llsl
    errno.o(i.__aeabi_errno_addr) refers to errno.o(.data) for .data
    errno.o(i.__read_errno) refers to errno.o(.data) for .data
    errno.o(i.__set_errno) refers to errno.o(.data) for .data
    depilogue.o(.text) refers to llshl.o(.text) for __aeabi_llsl
    depilogue.o(.text) refers to llushr.o(.text) for __aeabi_llsr
    dsqrt.o(.text) refers to llushr.o(.text) for __aeabi_llsr
    dsqrt.o(.text) refers to depilogue.o(.text) for _double_round
    dfixul.o(.text) refers to llushr.o(.text) for __aeabi_llsr
    dfixul.o(.text) refers to llshl.o(.text) for __aeabi_llsl
    init.o(.text) refers to entry5.o(.ARM.Collect$$$$00000004) for __main_after_scatterload


==============================================================================

Removing Unused input sections from the image.

    Removing main.o(.rev16_text), (4 bytes).
    Removing main.o(.revsh_text), (4 bytes).
    Removing main.o(.bss), (48 bytes).
    Removing stm32f4xx_it.o(.rev16_text), (4 bytes).
    Removing stm32f4xx_it.o(.revsh_text), (4 bytes).
    Removing system_stm32f4xx.o(.rev16_text), (4 bytes).
    Removing system_stm32f4xx.o(.revsh_text), (4 bytes).
    Removing led.o(.rev16_text), (4 bytes).
    Removing led.o(.revsh_text), (4 bytes).
    Removing key.o(.rev16_text), (4 bytes).
    Removing key.o(.revsh_text), (4 bytes).
    Removing mpu9250.o(.rev16_text), (4 bytes).
    Removing mpu9250.o(.revsh_text), (4 bytes).
    Removing mpuiic.o(.rev16_text), (4 bytes).
    Removing mpuiic.o(.revsh_text), (4 bytes).
    Removing oled.o(.rev16_text), (4 bytes).
    Removing oled.o(.revsh_text), (4 bytes).
    Removing control.o(.rev16_text), (4 bytes).
    Removing control.o(.revsh_text), (4 bytes).
    Removing encoder.o(.rev16_text), (4 bytes).
    Removing encoder.o(.revsh_text), (4 bytes).
    Removing xunji.o(.rev16_text), (4 bytes).
    Removing xunji.o(.revsh_text), (4 bytes).
    Removing motor.o(.rev16_text), (4 bytes).
    Removing motor.o(.revsh_text), (4 bytes).
    Removing pid.o(.rev16_text), (4 bytes).
    Removing pid.o(.revsh_text), (4 bytes).
    Removing pid.o(.data), (32 bytes).
    Removing pwm.o(.rev16_text), (4 bytes).
    Removing pwm.o(.revsh_text), (4 bytes).
    Removing timer.o(.rev16_text), (4 bytes).
    Removing timer.o(.revsh_text), (4 bytes).
    Removing sonic.o(.rev16_text), (4 bytes).
    Removing sonic.o(.revsh_text), (4 bytes).
    Removing exti.o(.rev16_text), (4 bytes).
    Removing exti.o(.revsh_text), (4 bytes).
    Removing duoji.o(.rev16_text), (4 bytes).
    Removing duoji.o(.revsh_text), (4 bytes).
    Removing duoji.o(.text), (76 bytes).
    Removing duoji.o(.data), (8 bytes).
    Removing bujin.o(.rev16_text), (4 bytes).
    Removing bujin.o(.revsh_text), (4 bytes).
    Removing dongzuo.o(.rev16_text), (4 bytes).
    Removing dongzuo.o(.revsh_text), (4 bytes).
    Removing usartdma.o(.rev16_text), (4 bytes).
    Removing usartdma.o(.revsh_text), (4 bytes).
    Removing usart2dma.o(.rev16_text), (4 bytes).
    Removing usart2dma.o(.revsh_text), (4 bytes).
    Removing usart3dma.o(.rev16_text), (4 bytes).
    Removing usart3dma.o(.revsh_text), (4 bytes).
    Removing usart4dma.o(.rev16_text), (4 bytes).
    Removing usart4dma.o(.revsh_text), (4 bytes).
    Removing adc.o(.rev16_text), (4 bytes).
    Removing adc.o(.revsh_text), (4 bytes).
    Removing adc.o(.text), (652 bytes).
    Removing adc.o(.bss), (52 bytes).
    Removing adc.o(.data), (12 bytes).
    Removing nrf24l01.o(.rev16_text), (4 bytes).
    Removing nrf24l01.o(.revsh_text), (4 bytes).
    Removing spi.o(.rev16_text), (4 bytes).
    Removing spi.o(.revsh_text), (4 bytes).
    Removing delay.o(.rev16_text), (4 bytes).
    Removing delay.o(.revsh_text), (4 bytes).
    Removing sys.o(.rev16_text), (4 bytes).
    Removing sys.o(.revsh_text), (4 bytes).
    Removing sys.o(.emb_text), (16 bytes).
    Removing usart.o(.rev16_text), (4 bytes).
    Removing usart.o(.revsh_text), (4 bytes).
    Removing usart.o(.bss), (300 bytes).
    Removing misc.o(.rev16_text), (4 bytes).
    Removing misc.o(.revsh_text), (4 bytes).
    Removing stm32f4xx_fsmc.o(.rev16_text), (4 bytes).
    Removing stm32f4xx_fsmc.o(.revsh_text), (4 bytes).
    Removing stm32f4xx_fsmc.o(.text), (1480 bytes).
    Removing stm32f4xx_fsmc.o(.constdata), (28 bytes).
    Removing stm32f4xx_gpio.o(.rev16_text), (4 bytes).
    Removing stm32f4xx_gpio.o(.revsh_text), (4 bytes).
    Removing stm32f4xx_rcc.o(.rev16_text), (4 bytes).
    Removing stm32f4xx_rcc.o(.revsh_text), (4 bytes).
    Removing stm32f4xx_syscfg.o(.rev16_text), (4 bytes).
    Removing stm32f4xx_syscfg.o(.revsh_text), (4 bytes).
    Removing stm32f4xx_usart.o(.rev16_text), (4 bytes).
    Removing stm32f4xx_usart.o(.revsh_text), (4 bytes).
    Removing stm32f4xx_tim.o(.rev16_text), (4 bytes).
    Removing stm32f4xx_tim.o(.revsh_text), (4 bytes).
    Removing stm32f4xx_exti.o(.rev16_text), (4 bytes).
    Removing stm32f4xx_exti.o(.revsh_text), (4 bytes).
    Removing stm32f4xx_dma.o(.rev16_text), (4 bytes).
    Removing stm32f4xx_dma.o(.revsh_text), (4 bytes).
    Removing stm32f4xx_adc.o(.rev16_text), (4 bytes).
    Removing stm32f4xx_adc.o(.revsh_text), (4 bytes).
    Removing stm32f4xx_adc.o(.text), (1124 bytes).
    Removing stm32f4xx_spi.o(.rev16_text), (4 bytes).
    Removing stm32f4xx_spi.o(.revsh_text), (4 bytes).
    Removing inv_mpu.o(.rev16_text), (4 bytes).
    Removing inv_mpu.o(.revsh_text), (4 bytes).
    Removing inv_mpu_dmp_motion_driver.o(.rev16_text), (4 bytes).
    Removing inv_mpu_dmp_motion_driver.o(.revsh_text), (4 bytes).
    Removing log_stm32.o(.rev16_text), (4 bytes).
    Removing log_stm32.o(.revsh_text), (4 bytes).
    Removing mlmath.o(.text), (384 bytes).
    Removing fast_no_motion.o(.constdata), (22 bytes).
    Removing accel_auto_cal.o(.constdata), (35 bytes).
    Removing dneg.o(.text), (6 bytes).

104 unused section(s) (total 4627 bytes) removed from the image.

==============================================================================

Image Symbol Table

    Local Symbols

    Symbol Name                              Value     Ov Type        Size  Object(Section)

    ../clib/../cmprslib/zerorunl2.c          0x00000000   Number         0  __dczerorl2.o ABSOLUTE
    ../clib/microlib/division.c              0x00000000   Number         0  uldiv.o ABSOLUTE
    ../clib/microlib/division.c              0x00000000   Number         0  ldiv.o ABSOLUTE
    ../clib/microlib/division.c              0x00000000   Number         0  uidiv.o ABSOLUTE
    ../clib/microlib/errno.c                 0x00000000   Number         0  errno.o ABSOLUTE
    ../clib/microlib/init/entry.s            0x00000000   Number         0  entry8a.o ABSOLUTE
    ../clib/microlib/init/entry.s            0x00000000   Number         0  entry7a.o ABSOLUTE
    ../clib/microlib/init/entry.s            0x00000000   Number         0  entry11b.o ABSOLUTE
    ../clib/microlib/init/entry.s            0x00000000   Number         0  entry.o ABSOLUTE
    ../clib/microlib/init/entry.s            0x00000000   Number         0  entry2.o ABSOLUTE
    ../clib/microlib/init/entry.s            0x00000000   Number         0  entry11a.o ABSOLUTE
    ../clib/microlib/init/entry.s            0x00000000   Number         0  entry9a.o ABSOLUTE
    ../clib/microlib/init/entry.s            0x00000000   Number         0  entry10b.o ABSOLUTE
    ../clib/microlib/init/entry.s            0x00000000   Number         0  entry10a.o ABSOLUTE
    ../clib/microlib/init/entry.s            0x00000000   Number         0  entry7b.o ABSOLUTE
    ../clib/microlib/init/entry.s            0x00000000   Number         0  entry5.o ABSOLUTE
    ../clib/microlib/init/entry.s            0x00000000   Number         0  entry8b.o ABSOLUTE
    ../clib/microlib/init/entry.s            0x00000000   Number         0  entry9b.o ABSOLUTE
    ../clib/microlib/longlong.c              0x00000000   Number         0  llushr.o ABSOLUTE
    ../clib/microlib/longlong.c              0x00000000   Number         0  llsshr.o ABSOLUTE
    ../clib/microlib/longlong.c              0x00000000   Number         0  llshl.o ABSOLUTE
    ../clib/microlib/malloc/malloc.c         0x00000000   Number         0  mallocr.o ABSOLUTE
    ../clib/microlib/malloc/malloc.c         0x00000000   Number         0  malloc.o ABSOLUTE
    ../clib/microlib/malloc/malloc.c         0x00000000   Number         0  mallocra.o ABSOLUTE
    ../clib/microlib/malloc/malloc.c         0x00000000   Number         0  malloca.o ABSOLUTE
    ../clib/microlib/malloc/mvars.c          0x00000000   Number         0  mvars.o ABSOLUTE
    ../clib/microlib/printf/printf.c         0x00000000   Number         0  printf6.o ABSOLUTE
    ../clib/microlib/printf/printf.c         0x00000000   Number         0  printf5.o ABSOLUTE
    ../clib/microlib/printf/printf.c         0x00000000   Number         0  printf8.o ABSOLUTE
    ../clib/microlib/printf/printf.c         0x00000000   Number         0  printf4.o ABSOLUTE
    ../clib/microlib/printf/printf.c         0x00000000   Number         0  printf2.o ABSOLUTE
    ../clib/microlib/printf/printf.c         0x00000000   Number         0  printfb.o ABSOLUTE
    ../clib/microlib/printf/printf.c         0x00000000   Number         0  printf0.o ABSOLUTE
    ../clib/microlib/printf/printf.c         0x00000000   Number         0  printf7.o ABSOLUTE
    ../clib/microlib/printf/printf.c         0x00000000   Number         0  printf3.o ABSOLUTE
    ../clib/microlib/printf/printf.c         0x00000000   Number         0  printfa.o ABSOLUTE
    ../clib/microlib/printf/printf.c         0x00000000   Number         0  printf1.o ABSOLUTE
    ../clib/microlib/printf/stubs.s          0x00000000   Number         0  stubs.o ABSOLUTE
    ../clib/microlib/string/memcmp.c         0x00000000   Number         0  memcmp.o ABSOLUTE
    ../clib/microlib/string/memcpy.c         0x00000000   Number         0  memcpya.o ABSOLUTE
    ../clib/microlib/string/memcpy.c         0x00000000   Number         0  memmovea.o ABSOLUTE
    ../clib/microlib/string/memcpy.c         0x00000000   Number         0  memcpyb.o ABSOLUTE
    ../clib/microlib/string/memcpy.c         0x00000000   Number         0  memmoveb.o ABSOLUTE
    ../clib/microlib/string/memset.c         0x00000000   Number         0  memseta.o ABSOLUTE
    ../clib/microlib/stubs.s                 0x00000000   Number         0  iusefp.o ABSOLUTE
    ../clib/microlib/stubs.s                 0x00000000   Number         0  useno.o ABSOLUTE
    ../fplib/microlib/d2f.c                  0x00000000   Number         0  d2f.o ABSOLUTE
    ../fplib/microlib/f2d.c                  0x00000000   Number         0  f2d.o ABSOLUTE
    ../fplib/microlib/fpadd.c                0x00000000   Number         0  dadd.o ABSOLUTE
    ../fplib/microlib/fpadd.c                0x00000000   Number         0  fadd.o ABSOLUTE
    ../fplib/microlib/fpdiv.c                0x00000000   Number         0  fdiv.o ABSOLUTE
    ../fplib/microlib/fpdiv.c                0x00000000   Number         0  ddiv.o ABSOLUTE
    ../fplib/microlib/fpepilogue.c           0x00000000   Number         0  depilogue.o ABSOLUTE
    ../fplib/microlib/fpepilogue.c           0x00000000   Number         0  fepilogue.o ABSOLUTE
    ../fplib/microlib/fpfix.c                0x00000000   Number         0  dfixul.o ABSOLUTE
    ../fplib/microlib/fpfix.c                0x00000000   Number         0  ffixi.o ABSOLUTE
    ../fplib/microlib/fpfix.c                0x00000000   Number         0  dfixi.o ABSOLUTE
    ../fplib/microlib/fpfix.c                0x00000000   Number         0  ffixl.o ABSOLUTE
    ../fplib/microlib/fpflt.c                0x00000000   Number         0  dfltui.o ABSOLUTE
    ../fplib/microlib/fpflt.c                0x00000000   Number         0  ffltl.o ABSOLUTE
    ../fplib/microlib/fpflt.c                0x00000000   Number         0  fflti.o ABSOLUTE
    ../fplib/microlib/fpflt.c                0x00000000   Number         0  ffltui.o ABSOLUTE
    ../fplib/microlib/fpflt.c                0x00000000   Number         0  dflti.o ABSOLUTE
    ../fplib/microlib/fpmul.c                0x00000000   Number         0  dmul.o ABSOLUTE
    ../fplib/microlib/fpmul.c                0x00000000   Number         0  fmul.o ABSOLUTE
    ../fplib/microlib/fpneg.c                0x00000000   Number         0  dneg.o ABSOLUTE
    ../fplib/microlib/fpscalb.c              0x00000000   Number         0  fscalb.o ABSOLUTE
    ../fplib/microlib/fpscalb.c              0x00000000   Number         0  dscalb.o ABSOLUTE
    ../fplib/microlib/fpsqrt.c               0x00000000   Number         0  dsqrt.o ABSOLUTE
    ../mathlib/acos.c                        0x00000000   Number         0  acos.o ABSOLUTE
    ../mathlib/acos.c                        0x00000000   Number         0  acos_x.o ABSOLUTE
    ../mathlib/acosf.c                       0x00000000   Number         0  acosf_x.o ABSOLUTE
    ../mathlib/acosf.c                       0x00000000   Number         0  acosf.o ABSOLUTE
    ../mathlib/asin.c                        0x00000000   Number         0  asin.o ABSOLUTE
    ../mathlib/asin.c                        0x00000000   Number         0  asin_x.o ABSOLUTE
    ../mathlib/asinf.c                       0x00000000   Number         0  asinf_x.o ABSOLUTE
    ../mathlib/asinf.c                       0x00000000   Number         0  asinf.o ABSOLUTE
    ../mathlib/atan.c                        0x00000000   Number         0  atan.o ABSOLUTE
    ../mathlib/atan.c                        0x00000000   Number         0  atan_x.o ABSOLUTE
    ../mathlib/atan2.c                       0x00000000   Number         0  atan2.o ABSOLUTE
    ../mathlib/atan2.c                       0x00000000   Number         0  atan2_x.o ABSOLUTE
    ../mathlib/atan2f.c                      0x00000000   Number         0  atan2f.o ABSOLUTE
    ../mathlib/atan2f.c                      0x00000000   Number         0  atan2f_x.o ABSOLUTE
    ../mathlib/ceil.c                        0x00000000   Number         0  ceil.o ABSOLUTE
    ../mathlib/cos.c                         0x00000000   Number         0  cos_x.o ABSOLUTE
    ../mathlib/cos.c                         0x00000000   Number         0  cos.o ABSOLUTE
    ../mathlib/cos_i.c                       0x00000000   Number         0  cos_i.o ABSOLUTE
    ../mathlib/cosf.c                        0x00000000   Number         0  cosf_x.o ABSOLUTE
    ../mathlib/cosf.c                        0x00000000   Number         0  cosf.o ABSOLUTE
    ../mathlib/dunder.c                      0x00000000   Number         0  dunder.o ABSOLUTE
    ../mathlib/fabs.c                        0x00000000   Number         0  fabs.o ABSOLUTE
    ../mathlib/floor.c                       0x00000000   Number         0  floor.o ABSOLUTE
    ../mathlib/fpclassify.c                  0x00000000   Number         0  fpclassify.o ABSOLUTE
    ../mathlib/fpclassifyf.c                 0x00000000   Number         0  fpclassifyf.o ABSOLUTE
    ../mathlib/funder.c                      0x00000000   Number         0  funder.o ABSOLUTE
    ../mathlib/log.c                         0x00000000   Number         0  log.o ABSOLUTE
    ../mathlib/log.c                         0x00000000   Number         0  log_x.o ABSOLUTE
    ../mathlib/poly.c                        0x00000000   Number         0  poly.o ABSOLUTE
    ../mathlib/pow.c                         0x00000000   Number         0  pow_x.o ABSOLUTE
    ../mathlib/pow.c                         0x00000000   Number         0  pow.o ABSOLUTE
    ../mathlib/qnan.c                        0x00000000   Number         0  qnan.o ABSOLUTE
    ../mathlib/rred.c                        0x00000000   Number         0  rred.o ABSOLUTE
    ../mathlib/rredf.c                       0x00000000   Number         0  rredf.o ABSOLUTE
    ../mathlib/sin.c                         0x00000000   Number         0  sin.o ABSOLUTE
    ../mathlib/sin.c                         0x00000000   Number         0  sin_x.o ABSOLUTE
    ../mathlib/sin_i.c                       0x00000000   Number         0  sin_i.o ABSOLUTE
    ../mathlib/sin_i.c                       0x00000000   Number         0  sin_i_x.o ABSOLUTE
    ../mathlib/sinf.c                        0x00000000   Number         0  sinf.o ABSOLUTE
    ../mathlib/sinf.c                        0x00000000   Number         0  sinf_x.o ABSOLUTE
    ../mathlib/sqrt.c                        0x00000000   Number         0  sqrt.o ABSOLUTE
    ../mathlib/sqrt.c                        0x00000000   Number         0  sqrt_x.o ABSOLUTE
    ../mathlib/sqrtf.c                       0x00000000   Number         0  sqrtf_x.o ABSOLUTE
    ../mathlib/sqrtf.c                       0x00000000   Number         0  sqrtf.o ABSOLUTE
    ..\CORE\startup_stm32f40_41xxx.s         0x00000000   Number         0  startup_stm32f40_41xxx.o ABSOLUTE
    ..\DMP\driver\eMPL\inv_mpu.c             0x00000000   Number         0  inv_mpu.o ABSOLUTE
    ..\DMP\driver\eMPL\inv_mpu_dmp_motion_driver.c 0x00000000   Number         0  inv_mpu_dmp_motion_driver.o ABSOLUTE
    ..\DMP\driver\stm32L\log_stm32.c         0x00000000   Number         0  log_stm32.o ABSOLUTE
    ..\DMP\eMPL-hal\eMPL_outputs.c           0x00000000   Number         0  empl_outputs.o ABSOLUTE
    ..\DMP\mllite\data_builder.c             0x00000000   Number         0  data_builder.o ABSOLUTE
    ..\DMP\mllite\hal_outputs.c              0x00000000   Number         0  hal_outputs.o ABSOLUTE
    ..\DMP\mllite\message_layer.c            0x00000000   Number         0  message_layer.o ABSOLUTE
    ..\DMP\mllite\ml_math_func.c             0x00000000   Number         0  ml_math_func.o ABSOLUTE
    ..\DMP\mllite\mlmath.c                   0x00000000   Number         0  mlmath.o ABSOLUTE
    ..\DMP\mllite\mpl.c                      0x00000000   Number         0  mpl.o ABSOLUTE
    ..\DMP\mllite\results_holder.c           0x00000000   Number         0  results_holder.o ABSOLUTE
    ..\DMP\mllite\start_manager.c            0x00000000   Number         0  start_manager.o ABSOLUTE
    ..\DMP\mllite\storage_manager.c          0x00000000   Number         0  storage_manager.o ABSOLUTE
    ..\FWLIB\src\misc.c                      0x00000000   Number         0  misc.o ABSOLUTE
    ..\FWLIB\src\stm32f4xx_adc.c             0x00000000   Number         0  stm32f4xx_adc.o ABSOLUTE
    ..\FWLIB\src\stm32f4xx_dma.c             0x00000000   Number         0  stm32f4xx_dma.o ABSOLUTE
    ..\FWLIB\src\stm32f4xx_exti.c            0x00000000   Number         0  stm32f4xx_exti.o ABSOLUTE
    ..\FWLIB\src\stm32f4xx_fsmc.c            0x00000000   Number         0  stm32f4xx_fsmc.o ABSOLUTE
    ..\FWLIB\src\stm32f4xx_gpio.c            0x00000000   Number         0  stm32f4xx_gpio.o ABSOLUTE
    ..\FWLIB\src\stm32f4xx_rcc.c             0x00000000   Number         0  stm32f4xx_rcc.o ABSOLUTE
    ..\FWLIB\src\stm32f4xx_spi.c             0x00000000   Number         0  stm32f4xx_spi.o ABSOLUTE
    ..\FWLIB\src\stm32f4xx_syscfg.c          0x00000000   Number         0  stm32f4xx_syscfg.o ABSOLUTE
    ..\FWLIB\src\stm32f4xx_tim.c             0x00000000   Number         0  stm32f4xx_tim.o ABSOLUTE
    ..\FWLIB\src\stm32f4xx_usart.c           0x00000000   Number         0  stm32f4xx_usart.o ABSOLUTE
    ..\HARDWARE\ADC\adc.c                    0x00000000   Number         0  adc.o ABSOLUTE
    ..\HARDWARE\CONTROL\control.c            0x00000000   Number         0  control.o ABSOLUTE
    ..\HARDWARE\DONGZUO\dongzuo.c            0x00000000   Number         0  dongzuo.o ABSOLUTE
    ..\HARDWARE\DUOJI\duoji.c                0x00000000   Number         0  duoji.o ABSOLUTE
    ..\HARDWARE\ENCODER\encoder.c            0x00000000   Number         0  encoder.o ABSOLUTE
    ..\HARDWARE\EXTI\exti.c                  0x00000000   Number         0  exti.o ABSOLUTE
    ..\HARDWARE\FILTER\filter.c              0x00000000   Number         0  filter.o ABSOLUTE
    ..\HARDWARE\IIC\mpuiic.c                 0x00000000   Number         0  mpuiic.o ABSOLUTE
    ..\HARDWARE\KEY\key.c                    0x00000000   Number         0  key.o ABSOLUTE
    ..\HARDWARE\LED\led.c                    0x00000000   Number         0  led.o ABSOLUTE
    ..\HARDWARE\MOTOR\motor.c                0x00000000   Number         0  motor.o ABSOLUTE
    ..\HARDWARE\MPU9250\mpu9250.c            0x00000000   Number         0  mpu9250.o ABSOLUTE
    ..\HARDWARE\NRF24L01\nrf24l01.c          0x00000000   Number         0  nrf24l01.o ABSOLUTE
    ..\HARDWARE\NRF24L01\spi.c               0x00000000   Number         0  spi.o ABSOLUTE
    ..\HARDWARE\OLED\oled.c                  0x00000000   Number         0  oled.o ABSOLUTE
    ..\HARDWARE\PID\pid.c                    0x00000000   Number         0  pid.o ABSOLUTE
    ..\HARDWARE\PWM\pwm.c                    0x00000000   Number         0  pwm.o ABSOLUTE
    ..\HARDWARE\SONIC\sonic.c                0x00000000   Number         0  sonic.o ABSOLUTE
    ..\HARDWARE\TIMER\timer.c                0x00000000   Number         0  timer.o ABSOLUTE
    ..\HARDWARE\USART1.DMA\usartdma.c        0x00000000   Number         0  usartdma.o ABSOLUTE
    ..\HARDWARE\USART2.DMA\usart2dma.c       0x00000000   Number         0  usart2dma.o ABSOLUTE
    ..\HARDWARE\USART3.DMA\usart3DMA.c       0x00000000   Number         0  usart3dma.o ABSOLUTE
    ..\HARDWARE\USART4.DMA\usart4dma.c       0x00000000   Number         0  usart4dma.o ABSOLUTE
    ..\HARDWARE\XUNJI\xunji.c                0x00000000   Number         0  xunji.o ABSOLUTE
    ..\HARDWARE\bujin\bujin.c                0x00000000   Number         0  bujin.o ABSOLUTE
    ..\SYSTEM\delay\delay.c                  0x00000000   Number         0  delay.o ABSOLUTE
    ..\SYSTEM\sys\sys.c                      0x00000000   Number         0  sys.o ABSOLUTE
    ..\SYSTEM\usart\usart.c                  0x00000000   Number         0  usart.o ABSOLUTE
    ..\\DMP\\driver\\eMPL\\inv_mpu.c         0x00000000   Number         0  inv_mpu.o ABSOLUTE
    ..\\DMP\\driver\\eMPL\\inv_mpu_dmp_motion_driver.c 0x00000000   Number         0  inv_mpu_dmp_motion_driver.o ABSOLUTE
    ..\\DMP\\driver\\stm32L\\log_stm32.c     0x00000000   Number         0  log_stm32.o ABSOLUTE
    ..\\FWLIB\\src\\misc.c                   0x00000000   Number         0  misc.o ABSOLUTE
    ..\\FWLIB\\src\\stm32f4xx_adc.c          0x00000000   Number         0  stm32f4xx_adc.o ABSOLUTE
    ..\\FWLIB\\src\\stm32f4xx_dma.c          0x00000000   Number         0  stm32f4xx_dma.o ABSOLUTE
    ..\\FWLIB\\src\\stm32f4xx_exti.c         0x00000000   Number         0  stm32f4xx_exti.o ABSOLUTE
    ..\\FWLIB\\src\\stm32f4xx_fsmc.c         0x00000000   Number         0  stm32f4xx_fsmc.o ABSOLUTE
    ..\\FWLIB\\src\\stm32f4xx_gpio.c         0x00000000   Number         0  stm32f4xx_gpio.o ABSOLUTE
    ..\\FWLIB\\src\\stm32f4xx_rcc.c          0x00000000   Number         0  stm32f4xx_rcc.o ABSOLUTE
    ..\\FWLIB\\src\\stm32f4xx_spi.c          0x00000000   Number         0  stm32f4xx_spi.o ABSOLUTE
    ..\\FWLIB\\src\\stm32f4xx_syscfg.c       0x00000000   Number         0  stm32f4xx_syscfg.o ABSOLUTE
    ..\\FWLIB\\src\\stm32f4xx_tim.c          0x00000000   Number         0  stm32f4xx_tim.o ABSOLUTE
    ..\\FWLIB\\src\\stm32f4xx_usart.c        0x00000000   Number         0  stm32f4xx_usart.o ABSOLUTE
    ..\\HARDWARE\\ADC\\adc.c                 0x00000000   Number         0  adc.o ABSOLUTE
    ..\\HARDWARE\\CONTROL\\control.c         0x00000000   Number         0  control.o ABSOLUTE
    ..\\HARDWARE\\DONGZUO\\dongzuo.c         0x00000000   Number         0  dongzuo.o ABSOLUTE
    ..\\HARDWARE\\DUOJI\\duoji.c             0x00000000   Number         0  duoji.o ABSOLUTE
    ..\\HARDWARE\\ENCODER\\encoder.c         0x00000000   Number         0  encoder.o ABSOLUTE
    ..\\HARDWARE\\EXTI\\exti.c               0x00000000   Number         0  exti.o ABSOLUTE
    ..\\HARDWARE\\IIC\\mpuiic.c              0x00000000   Number         0  mpuiic.o ABSOLUTE
    ..\\HARDWARE\\KEY\\key.c                 0x00000000   Number         0  key.o ABSOLUTE
    ..\\HARDWARE\\LED\\led.c                 0x00000000   Number         0  led.o ABSOLUTE
    ..\\HARDWARE\\MOTOR\\motor.c             0x00000000   Number         0  motor.o ABSOLUTE
    ..\\HARDWARE\\MPU9250\\mpu9250.c         0x00000000   Number         0  mpu9250.o ABSOLUTE
    ..\\HARDWARE\\NRF24L01\\nrf24l01.c       0x00000000   Number         0  nrf24l01.o ABSOLUTE
    ..\\HARDWARE\\NRF24L01\\spi.c            0x00000000   Number         0  spi.o ABSOLUTE
    ..\\HARDWARE\\OLED\\oled.c               0x00000000   Number         0  oled.o ABSOLUTE
    ..\\HARDWARE\\PID\\pid.c                 0x00000000   Number         0  pid.o ABSOLUTE
    ..\\HARDWARE\\PWM\\pwm.c                 0x00000000   Number         0  pwm.o ABSOLUTE
    ..\\HARDWARE\\SONIC\\sonic.c             0x00000000   Number         0  sonic.o ABSOLUTE
    ..\\HARDWARE\\TIMER\\timer.c             0x00000000   Number         0  timer.o ABSOLUTE
    ..\\HARDWARE\\USART1.DMA\\usartdma.c     0x00000000   Number         0  usartdma.o ABSOLUTE
    ..\\HARDWARE\\USART2.DMA\\usart2dma.c    0x00000000   Number         0  usart2dma.o ABSOLUTE
    ..\\HARDWARE\\USART3.DMA\\usart3DMA.c    0x00000000   Number         0  usart3dma.o ABSOLUTE
    ..\\HARDWARE\\USART4.DMA\\usart4dma.c    0x00000000   Number         0  usart4dma.o ABSOLUTE
    ..\\HARDWARE\\XUNJI\\xunji.c             0x00000000   Number         0  xunji.o ABSOLUTE
    ..\\HARDWARE\\bujin\\bujin.c             0x00000000   Number         0  bujin.o ABSOLUTE
    ..\\SYSTEM\\delay\\delay.c               0x00000000   Number         0  delay.o ABSOLUTE
    ..\\SYSTEM\\sys\\sys.c                   0x00000000   Number         0  sys.o ABSOLUTE
    ..\\SYSTEM\\usart\\usart.c               0x00000000   Number         0  usart.o ABSOLUTE
    MPL_LIB\mpl\accel_auto_cal.c             0x00000000   Number         0  accel_auto_cal.o ABSOLUTE
    MPL_LIB\mpl\compass_vec_cal.c            0x00000000   Number         0  compass_vec_cal.o ABSOLUTE
    MPL_LIB\mpl\fast_no_motion.c             0x00000000   Number         0  fast_no_motion.o ABSOLUTE
    MPL_LIB\mpl\fusion_9axis.c               0x00000000   Number         0  fusion_9axis.o ABSOLUTE
    MPL_LIB\mpl\gyro_tc.c                    0x00000000   Number         0  gyro_tc.o ABSOLUTE
    MPL_LIB\mpl\mag_disturb.c                0x00000000   Number         0  mag_disturb.o ABSOLUTE
    MPL_LIB\mpl\quaternion_supervisor.c      0x00000000   Number         0  quaternion_supervisor.o ABSOLUTE
    cdcmple.s                                0x00000000   Number         0  cdcmple.o ABSOLUTE
    cdrcmple.s                               0x00000000   Number         0  cdrcmple.o ABSOLUTE
    cfcmple.s                                0x00000000   Number         0  cfcmple.o ABSOLUTE
    cfrcmple.s                               0x00000000   Number         0  cfrcmple.o ABSOLUTE
    dc.s                                     0x00000000   Number         0  dc.o ABSOLUTE
    handlers.s                               0x00000000   Number         0  handlers.o ABSOLUTE
    init.s                                   0x00000000   Number         0  init.o ABSOLUTE
    main.c                                   0x00000000   Number         0  main.o ABSOLUTE
    main.c                                   0x00000000   Number         0  main.o ABSOLUTE
    stm32f4xx_it.c                           0x00000000   Number         0  stm32f4xx_it.o ABSOLUTE
    stm32f4xx_it.c                           0x00000000   Number         0  stm32f4xx_it.o ABSOLUTE
    system_stm32f4xx.c                       0x00000000   Number         0  system_stm32f4xx.o ABSOLUTE
    system_stm32f4xx.c                       0x00000000   Number         0  system_stm32f4xx.o ABSOLUTE
    RESET                                    0x08000000   Section      392  startup_stm32f40_41xxx.o(RESET)
    .ARM.Collect$$$$00000000                 0x08000188   Section        0  entry.o(.ARM.Collect$$$$00000000)
    .ARM.Collect$$$$00000001                 0x08000188   Section        4  entry2.o(.ARM.Collect$$$$00000001)
    .ARM.Collect$$$$00000004                 0x0800018c   Section        4  entry5.o(.ARM.Collect$$$$00000004)
    .ARM.Collect$$$$00000008                 0x08000190   Section        0  entry7b.o(.ARM.Collect$$$$00000008)
    .ARM.Collect$$$$0000000A                 0x08000190   Section        0  entry8b.o(.ARM.Collect$$$$0000000A)
    .ARM.Collect$$$$0000000B                 0x08000190   Section        8  entry9a.o(.ARM.Collect$$$$0000000B)
    .ARM.Collect$$$$0000000D                 0x08000198   Section        0  entry10a.o(.ARM.Collect$$$$0000000D)
    .ARM.Collect$$$$0000000F                 0x08000198   Section        0  entry11a.o(.ARM.Collect$$$$0000000F)
    .ARM.Collect$$$$00002712                 0x08000198   Section        4  entry2.o(.ARM.Collect$$$$00002712)
    __lit__00000000                          0x08000198   Data           4  entry2.o(.ARM.Collect$$$$00002712)
    .text                                    0x0800019c   Section        0  main.o(.text)
    .text                                    0x08000d00   Section        0  stm32f4xx_it.o(.text)
    .text                                    0x08000d1c   Section        0  system_stm32f4xx.o(.text)
    SetSysClock                              0x08000d1d   Thumb Code   220  system_stm32f4xx.o(.text)
    .text                                    0x08000f2c   Section        0  led.o(.text)
    .text                                    0x08001028   Section        0  key.o(.text)
    .text                                    0x080016ac   Section        0  mpu9250.o(.text)
    .text                                    0x08001adc   Section        0  mpuiic.o(.text)
    .text                                    0x08001d40   Section        0  oled.o(.text)
    .text                                    0x0800268c   Section        0  control.o(.text)
    .text                                    0x08003918   Section        0  encoder.o(.text)
    .text                                    0x08003df4   Section        0  xunji.o(.text)
    .text                                    0x08003eb8   Section        0  motor.o(.text)
    .text                                    0x08005d54   Section        0  pid.o(.text)
    .text                                    0x0800609c   Section        0  pwm.o(.text)
    .text                                    0x08006610   Section        0  timer.o(.text)
    .text                                    0x0800666c   Section        0  sonic.o(.text)
    .text                                    0x08006e00   Section        0  filter.o(.text)
    .text                                    0x080071f0   Section        0  exti.o(.text)
    .text                                    0x08007c18   Section        0  bujin.o(.text)
    .text                                    0x08007f38   Section        0  usartdma.o(.text)
    .text                                    0x080082e8   Section        0  usart2dma.o(.text)
    .text                                    0x08008724   Section        0  usart3dma.o(.text)
    .text                                    0x08008924   Section        0  usart4dma.o(.text)
    .text                                    0x0800901c   Section        0  nrf24l01.o(.text)
    .text                                    0x08009724   Section        0  spi.o(.text)
    .text                                    0x08009834   Section        0  delay.o(.text)
    .text                                    0x08009938   Section        0  usart.o(.text)
    .text                                    0x08009a08   Section       36  startup_stm32f40_41xxx.o(.text)
    $v0                                      0x08009a08   Number         0  startup_stm32f40_41xxx.o(.text)
    .text                                    0x08009a2c   Section        0  misc.o(.text)
    .text                                    0x08009b0c   Section        0  stm32f4xx_gpio.o(.text)
    .text                                    0x08009da0   Section        0  stm32f4xx_rcc.o(.text)
    .text                                    0x0800a3fc   Section        0  stm32f4xx_syscfg.o(.text)
    .text                                    0x0800a490   Section        0  stm32f4xx_usart.o(.text)
    .text                                    0x0800a8e4   Section        0  stm32f4xx_tim.o(.text)
    TI4_Config                               0x0800b083   Thumb Code    80  stm32f4xx_tim.o(.text)
    TI3_Config                               0x0800b0e5   Thumb Code    72  stm32f4xx_tim.o(.text)
    TI2_Config                               0x0800b147   Thumb Code    90  stm32f4xx_tim.o(.text)
    TI1_Config                               0x0800b1b3   Thumb Code    58  stm32f4xx_tim.o(.text)
    .text                                    0x0800b588   Section        0  stm32f4xx_exti.o(.text)
    .text                                    0x0800b698   Section        0  stm32f4xx_dma.o(.text)
    .text                                    0x0800ba40   Section        0  stm32f4xx_spi.o(.text)
    .text                                    0x0800bec0   Section        0  inv_mpu.o(.text)
    set_int_enable                           0x0800bec1   Thumb Code   138  inv_mpu.o(.text)
    setup_compass                            0x0800c363   Thumb Code   570  inv_mpu.o(.text)
    compass_self_test                        0x0800d621   Thumb Code   334  inv_mpu.o(.text)
    get_st_biases                            0x0800d76f   Thumb Code  1132  inv_mpu.o(.text)
    accel_6500_self_test                     0x0800dbdb   Thumb Code  1394  inv_mpu.o(.text)
    gyro_6500_self_test                      0x0800e14d   Thumb Code  1344  inv_mpu.o(.text)
    get_st_6500_biases                       0x0800e68d   Thumb Code  1634  inv_mpu.o(.text)
    .text                                    0x0800fb94   Section        0  inv_mpu_dmp_motion_driver.o(.text)
    decode_gesture                           0x08010669   Thumb Code    94  inv_mpu_dmp_motion_driver.o(.text)
    .text                                    0x08010924   Section        0  log_stm32.o(.text)
    .text                                    0x08010c40   Section        0  empl_outputs.o(.text)
    inv_generate_eMPL_outputs                0x08010fef   Thumb Code   260  empl_outputs.o(.text)
    inv_start_eMPL_outputs                   0x080110f3   Thumb Code    16  empl_outputs.o(.text)
    inv_stop_eMPL_outputs                    0x08011103   Thumb Code    10  empl_outputs.o(.text)
    inv_init_eMPL_outputs                    0x0801110d   Thumb Code    14  empl_outputs.o(.text)
    .text                                    0x0801114c   Section        0  data_builder.o(.text)
    inv_db_load_func                         0x0801114d   Thumb Code    70  data_builder.o(.text)
    inv_db_save_func                         0x08011193   Thumb Code    18  data_builder.o(.text)
    inv_set_contiguous                       0x08011a25   Thumb Code   282  data_builder.o(.text)
    .text                                    0x08011dd8   Section        0  hal_outputs.o(.text)
    inv_get_rotation                         0x0801211b   Thumb Code   198  hal_outputs.o(.text)
    google_orientation                       0x080121e1   Thumb Code   146  hal_outputs.o(.text)
    .text                                    0x08012518   Section        0  message_layer.o(.text)
    .text                                    0x08012544   Section        0  ml_math_func.o(.text)
    inv_row_2_scale                          0x08013201   Thumb Code    78  ml_math_func.o(.text)
    inv_q30_to_float                         0x08013533   Thumb Code    18  ml_math_func.o(.text)
    inv_q30_to_double                        0x08013545   Thumb Code    40  ml_math_func.o(.text)
    .text                                    0x08013578   Section        0  mpl.o(.text)
    __print_result_location                  0x08013579   Thumb Code    28  mpl.o(.text)
    .text                                    0x08013668   Section        0  results_holder.o(.text)
    inv_q30_to_float                         0x08013a59   Thumb Code    18  results_holder.o(.text)
    .text                                    0x08013a70   Section        0  start_manager.o(.text)
    .text                                    0x08013b28   Section        0  storage_manager.o(.text)
    inv_find_entry                           0x08013bcf   Thumb Code    44  storage_manager.o(.text)
    .text                                    0x08013d4c   Section        0  compass_vec_cal.o(.text)
    inv_check_peaks                          0x08013d55   Thumb Code   474  compass_vec_cal.o(.text)
    inv_ignore_compass_data                  0x080150c3   Thumb Code   252  compass_vec_cal.o(.text)
    inv_bias_stability                       0x080151bf   Thumb Code   308  compass_vec_cal.o(.text)
    inv_set_peaks                            0x08015acd   Thumb Code    86  compass_vec_cal.o(.text)
    inv_init_sensitivity_const               0x08015b23   Thumb Code    94  compass_vec_cal.o(.text)
    .text                                    0x08015ba8   Section        0  fast_no_motion.o(.text)
    inv_reset_packet                         0x0801656d   Thumb Code    30  fast_no_motion.o(.text)
    .text                                    0x0801659c   Section        0  fusion_9axis.o(.text)
    inv_find_synchronized_compass_angle      0x08016b55   Thumb Code   156  fusion_9axis.o(.text)
    .text                                    0x08016bf8   Section        0  gyro_tc.o(.text)
    inv_gtc_load                             0x08016bf9   Thumb Code    38  gyro_tc.o(.text)
    inv_gtc_store                            0x08016c1f   Thumb Code    32  gyro_tc.o(.text)
    inv_gtc_compute_slope                    0x08016c3f   Thumb Code   472  gyro_tc.o(.text)
    inv_gtc_add_data                         0x08016e17   Thumb Code   204  gyro_tc.o(.text)
    inv_gtc_data_cb                          0x08016ee3   Thumb Code   144  gyro_tc.o(.text)
    .text                                    0x080170b4   Section        0  mag_disturb.o(.text)
    .text                                    0x08017604   Section        0  quaternion_supervisor.o(.text)
    accel_fusion                             0x08017605   Thumb Code   428  quaternion_supervisor.o(.text)
    inv_compute_quat_from_accel              0x080177b1   Thumb Code   286  quaternion_supervisor.o(.text)
    inv_normalize_quat                       0x080178cf   Thumb Code   198  quaternion_supervisor.o(.text)
    inv_process_dmp_quaternion               0x08017a99   Thumb Code   494  quaternion_supervisor.o(.text)
    inv_generate_quaternion                  0x08017e59   Thumb Code    72  quaternion_supervisor.o(.text)
    .text                                    0x08017f44   Section        0  accel_auto_cal.o(.text)
    inv_check_push                           0x08017fdf   Thumb Code   352  accel_auto_cal.o(.text)
    inv_check_coverage_set_bias              0x0801813f   Thumb Code   266  accel_auto_cal.o(.text)
    inv_combine_data_calculate_bias          0x08018249   Thumb Code   158  accel_auto_cal.o(.text)
    set_sample_rate                          0x08018643   Thumb Code    54  accel_auto_cal.o(.text)
    .text                                    0x08018a30   Section        0  ldiv.o(.text)
    .text                                    0x08018a92   Section        0  llshl.o(.text)
    .text                                    0x08018ab0   Section        0  llsshr.o(.text)
    .text                                    0x08018ad4   Section        0  memmovea.o(.text)
    .text                                    0x08018b14   Section        0  memseta.o(.text)
    .text                                    0x08018b38   Section        0  memcmp.o(.text)
    .text                                    0x08018b52   Section        0  fadd.o(.text)
    .text                                    0x08018c02   Section        0  fmul.o(.text)
    .text                                    0x08018c66   Section        0  fdiv.o(.text)
    .text                                    0x08018ce2   Section        0  fscalb.o(.text)
    .text                                    0x08018cfa   Section        0  dadd.o(.text)
    .text                                    0x08018e48   Section        0  dmul.o(.text)
    .text                                    0x08018f2c   Section        0  ddiv.o(.text)
    .text                                    0x0801900a   Section        0  dscalb.o(.text)
    .text                                    0x08019038   Section        0  fflti.o(.text)
    .text                                    0x0801904a   Section        0  ffltui.o(.text)
    .text                                    0x08019054   Section        0  ffltl.o(.text)
    .text                                    0x08019080   Section        0  dflti.o(.text)
    .text                                    0x080190a2   Section        0  dfltui.o(.text)
    .text                                    0x080190bc   Section        0  ffixi.o(.text)
    .text                                    0x080190ee   Section        0  ffixl.o(.text)
    .text                                    0x08019130   Section        0  dfixi.o(.text)
    .text                                    0x0801916e   Section        0  f2d.o(.text)
    .text                                    0x08019194   Section       48  cdcmple.o(.text)
    .text                                    0x080191c4   Section       48  cdrcmple.o(.text)
    .text                                    0x080191f4   Section        0  d2f.o(.text)
    .text                                    0x0801922c   Section       20  cfcmple.o(.text)
    .text                                    0x08019240   Section       20  cfrcmple.o(.text)
    .text                                    0x08019254   Section        0  uidiv.o(.text)
    .text                                    0x08019280   Section        0  uldiv.o(.text)
    .text                                    0x080192e2   Section        0  llushr.o(.text)
    .text                                    0x08019302   Section        0  iusefp.o(.text)
    .text                                    0x08019302   Section        0  fepilogue.o(.text)
    .text                                    0x08019370   Section        0  depilogue.o(.text)
    .text                                    0x0801942a   Section        0  dsqrt.o(.text)
    .text                                    0x080194cc   Section        0  dfixul.o(.text)
    .text                                    0x080194fc   Section       36  init.o(.text)
    .text                                    0x08019520   Section        0  __dczerorl2.o(.text)
    i.__0printf                              0x08019578   Section        0  printfa.o(i.__0printf)
    i.__0vsprintf                            0x08019598   Section        0  printfa.o(i.__0vsprintf)
    i.__ARM_fpclassify                       0x080195bc   Section        0  fpclassify.o(i.__ARM_fpclassify)
    i.__ARM_fpclassifyf                      0x080195ec   Section        0  fpclassifyf.o(i.__ARM_fpclassifyf)
    i.__hardfp_acos                          0x08019618   Section        0  acos.o(i.__hardfp_acos)
    i.__hardfp_acosf                         0x08019970   Section        0  acosf.o(i.__hardfp_acosf)
    i.__hardfp_asin                          0x08019a88   Section        0  asin.o(i.__hardfp_asin)
    i.__hardfp_asinf                         0x08019de8   Section        0  asinf.o(i.__hardfp_asinf)
    i.__hardfp_atan                          0x08019f18   Section        0  atan.o(i.__hardfp_atan)
    i.__hardfp_atan2                         0x0801a1f0   Section        0  atan2.o(i.__hardfp_atan2)
    i.__hardfp_atan2f                        0x0801a3e0   Section        0  atan2f.o(i.__hardfp_atan2f)
    i.__hardfp_cos                           0x0801a630   Section        0  cos.o(i.__hardfp_cos)
    i.__hardfp_cosf                          0x0801a6f8   Section        0  cosf.o(i.__hardfp_cosf)
    i.__hardfp_fabs                          0x0801a848   Section        0  fabs.o(i.__hardfp_fabs)
    i.__hardfp_log                           0x0801a860   Section        0  log.o(i.__hardfp_log)
    i.__hardfp_sin                           0x0801ac28   Section        0  sin.o(i.__hardfp_sin)
    i.__hardfp_sinf                          0x0801acf0   Section        0  sinf.o(i.__hardfp_sinf)
    i.__hardfp_sqrt                          0x0801ae80   Section        0  sqrt.o(i.__hardfp_sqrt)
    i.__hardfp_sqrtf                         0x0801aefa   Section        0  sqrtf.o(i.__hardfp_sqrtf)
    i.__ieee754_rem_pio2                     0x0801af38   Section        0  rred.o(i.__ieee754_rem_pio2)
    i.__kernel_cos                           0x0801b370   Section        0  cos_i.o(i.__kernel_cos)
    i.__kernel_poly                          0x0801b4e0   Section        0  poly.o(i.__kernel_poly)
    i.__kernel_sin                           0x0801b5d8   Section        0  sin_i.o(i.__kernel_sin)
    i.__mathlib_dbl_divzero                  0x0801b708   Section        0  dunder.o(i.__mathlib_dbl_divzero)
    i.__mathlib_dbl_infnan                   0x0801b738   Section        0  dunder.o(i.__mathlib_dbl_infnan)
    i.__mathlib_dbl_infnan2                  0x0801b74c   Section        0  dunder.o(i.__mathlib_dbl_infnan2)
    i.__mathlib_dbl_invalid                  0x0801b760   Section        0  dunder.o(i.__mathlib_dbl_invalid)
    i.__mathlib_dbl_underflow                0x0801b780   Section        0  dunder.o(i.__mathlib_dbl_underflow)
    i.__mathlib_flt_infnan                   0x0801b7a0   Section        0  funder.o(i.__mathlib_flt_infnan)
    i.__mathlib_flt_infnan2                  0x0801b7a6   Section        0  funder.o(i.__mathlib_flt_infnan2)
    i.__mathlib_flt_invalid                  0x0801b7ac   Section        0  funder.o(i.__mathlib_flt_invalid)
    i.__mathlib_flt_underflow                0x0801b7bc   Section        0  funder.o(i.__mathlib_flt_underflow)
    i.__mathlib_rredf2                       0x0801b7cc   Section        0  rredf.o(i.__mathlib_rredf2)
    i.__scatterload_copy                     0x0801b920   Section       14  handlers.o(i.__scatterload_copy)
    i.__scatterload_null                     0x0801b92e   Section        2  handlers.o(i.__scatterload_null)
    i.__scatterload_zeroinit                 0x0801b930   Section       14  handlers.o(i.__scatterload_zeroinit)
    i.__set_errno                            0x0801b940   Section        0  errno.o(i.__set_errno)
    i._fp_digits                             0x0801b94c   Section        0  printfa.o(i._fp_digits)
    _fp_digits                               0x0801b94d   Thumb Code   334  printfa.o(i._fp_digits)
    i._printf_core                           0x0801bab0   Section        0  printfa.o(i._printf_core)
    _printf_core                             0x0801bab1   Thumb Code  1744  printfa.o(i._printf_core)
    i._printf_post_padding                   0x0801c18c   Section        0  printfa.o(i._printf_post_padding)
    _printf_post_padding                     0x0801c18d   Thumb Code    36  printfa.o(i._printf_post_padding)
    i._printf_pre_padding                    0x0801c1b0   Section        0  printfa.o(i._printf_pre_padding)
    _printf_pre_padding                      0x0801c1b1   Thumb Code    46  printfa.o(i._printf_pre_padding)
    i._sputc                                 0x0801c1de   Section        0  printfa.o(i._sputc)
    _sputc                                   0x0801c1df   Thumb Code    10  printfa.o(i._sputc)
    i.acosf                                  0x0801c1e8   Section        0  acosf.o(i.acosf)
    i.atan                                   0x0801c1f8   Section        0  atan.o(i.atan)
    i.cos                                    0x0801c208   Section        0  cos.o(i.cos)
    i.cosf                                   0x0801c218   Section        0  cosf.o(i.cosf)
    i.fabs                                   0x0801c228   Section        0  fabs.o(i.fabs)
    i.free                                   0x0801c240   Section        0  malloc.o(i.free)
    i.log                                    0x0801c290   Section        0  log.o(i.log)
    i.malloc                                 0x0801c2a0   Section        0  malloc.o(i.malloc)
    i.sinf                                   0x0801c30c   Section        0  sinf.o(i.sinf)
    i.sqrt                                   0x0801c31c   Section        0  sqrt.o(i.sqrt)
    i.sqrtf                                  0x0801c38a   Section        0  sqrtf.o(i.sqrtf)
    .constdata                               0x0801c3c8   Section     6080  oled.o(.constdata)
    .constdata                               0x0801db88   Section       16  nrf24l01.o(.constdata)
    .constdata                               0x0801db98   Section      616  inv_mpu.o(.constdata)
    mpu_6500_st_tb                           0x0801dc00   Data         512  inv_mpu.o(.constdata)
    .constdata                               0x0801de00   Section     3062  inv_mpu_dmp_motion_driver.o(.constdata)
    dmp_memory                               0x0801de00   Data        3062  inv_mpu_dmp_motion_driver.o(.constdata)
    .constdata                               0x0801e9f8   Section     1024  ml_math_func.o(.constdata)
    .constdata                               0x0801edf8   Section       47  mpl.o(.constdata)
    __func__                                 0x0801ee0c   Data          13  mpl.o(.constdata)
    __func__                                 0x0801ee19   Data          14  mpl.o(.constdata)
    .constdata                               0x0801ee28   Section       80  acos.o(.constdata)
    pS                                       0x0801ee28   Data          48  acos.o(.constdata)
    qS                                       0x0801ee58   Data          32  acos.o(.constdata)
    .constdata                               0x0801ee78   Section       80  asin.o(.constdata)
    pS                                       0x0801ee78   Data          48  asin.o(.constdata)
    qS                                       0x0801eea8   Data          32  asin.o(.constdata)
    .constdata                               0x0801eec8   Section      152  atan.o(.constdata)
    atanhi                                   0x0801eec8   Data          32  atan.o(.constdata)
    atanlo                                   0x0801eee8   Data          32  atan.o(.constdata)
    aTodd                                    0x0801ef08   Data          40  atan.o(.constdata)
    aTeven                                   0x0801ef30   Data          48  atan.o(.constdata)
    .constdata                               0x0801ef60   Section       56  log.o(.constdata)
    Lg2                                      0x0801ef60   Data          24  log.o(.constdata)
    Lg                                       0x0801ef78   Data          32  log.o(.constdata)
    .constdata                               0x0801ef98   Section       48  cos_i.o(.constdata)
    C                                        0x0801ef98   Data          48  cos_i.o(.constdata)
    .constdata                               0x0801efc8   Section        8  qnan.o(.constdata)
    .constdata                               0x0801efd0   Section      200  rred.o(.constdata)
    pio2s                                    0x0801efd0   Data          48  rred.o(.constdata)
    twooverpi                                0x0801f000   Data         152  rred.o(.constdata)
    .constdata                               0x0801f098   Section       32  rredf.o(.constdata)
    twooverpi                                0x0801f098   Data          32  rredf.o(.constdata)
    .constdata                               0x0801f0b8   Section       40  sin_i.o(.constdata)
    S                                        0x0801f0b8   Data          40  sin_i.o(.constdata)
    .conststring                             0x0801f0e0   Section        9  inv_mpu.o(.conststring)
    .conststring                             0x0801f0ec   Section       68  data_builder.o(.conststring)
    .data                                    0x20000000   Section      132  main.o(.data)
    .data                                    0x20000084   Section       20  system_stm32f4xx.o(.data)
    .data                                    0x20000098   Section        5  key.o(.data)
    key_up                                   0x2000009c   Data           1  key.o(.data)
    .data                                    0x200000a0   Section     1028  oled.o(.data)
    .data                                    0x200004a4   Section      352  control.o(.data)
    MS6                                      0x200005e8   Data           4  control.o(.data)
    MS20                                     0x200005ec   Data           4  control.o(.data)
    MS7                                      0x200005f0   Data           4  control.o(.data)
    MS8                                      0x200005f4   Data           4  control.o(.data)
    MS23                                     0x200005f8   Data           4  control.o(.data)
    MS30                                     0x200005fc   Data           4  control.o(.data)
    tt                                       0x20000600   Data           4  control.o(.data)
    .data                                    0x20000604   Section       48  encoder.o(.data)
    .data                                    0x20000634   Section        8  motor.o(.data)
    .data                                    0x2000063c   Section       32  timer.o(.data)
    .data                                    0x20000660   Section      104  sonic.o(.data)
    .data                                    0x200006c8   Section        8  filter.o(.data)
    max                                      0x200006c8   Data           2  filter.o(.data)
    min                                      0x200006ca   Data           2  filter.o(.data)
    max                                      0x200006cc   Data           2  filter.o(.data)
    min                                      0x200006ce   Data           2  filter.o(.data)
    .data                                    0x200006d0   Section      224  exti.o(.data)
    flag2                                    0x20000794   Data           4  exti.o(.data)
    flag1                                    0x20000798   Data           4  exti.o(.data)
    FLAG1                                    0x2000079c   Data           4  exti.o(.data)
    flag3                                    0x200007a0   Data           4  exti.o(.data)
    flag4                                    0x200007a4   Data           4  exti.o(.data)
    flag5                                    0x200007a8   Data           4  exti.o(.data)
    flag6                                    0x200007ac   Data           4  exti.o(.data)
    .data                                    0x200007b0   Section       80  bujin.o(.data)
    MS6                                      0x200007f0   Data           4  bujin.o(.data)
    MS7                                      0x200007f4   Data           4  bujin.o(.data)
    MS8                                      0x200007f8   Data           4  bujin.o(.data)
    MS9                                      0x200007fc   Data           4  bujin.o(.data)
    .data                                    0x20000800   Section        1  usartdma.o(.data)
    UART1_Rec_Len                            0x20000800   Data           1  usartdma.o(.data)
    .data                                    0x20000802   Section        9  usart2dma.o(.data)
    Uart2_Rec_Len                            0x20000808   Data           1  usart2dma.o(.data)
    bit_number                               0x20000809   Data           1  usart2dma.o(.data)
    state                                    0x2000080a   Data           1  usart2dma.o(.data)
    .data                                    0x2000080c   Section       18  usart3dma.o(.data)
    state                                    0x2000081c   Data           1  usart3dma.o(.data)
    bit_number                               0x2000081d   Data           1  usart3dma.o(.data)
    .data                                    0x20000820   Section       14  usart4dma.o(.data)
    Uart4_Rec_Len                            0x2000082c   Data           1  usart4dma.o(.data)
    i                                        0x2000082d   Data           1  usart4dma.o(.data)
    .data                                    0x20000830   Section        8  nrf24l01.o(.data)
    .data                                    0x20000838   Section        4  delay.o(.data)
    fac_us                                   0x20000838   Data           1  delay.o(.data)
    fac_ms                                   0x2000083a   Data           2  delay.o(.data)
    .data                                    0x2000083c   Section       62  usart.o(.data)
    .data                                    0x2000087a   Section       16  stm32f4xx_rcc.o(.data)
    APBAHBPrescTable                         0x2000087a   Data          16  stm32f4xx_rcc.o(.data)
    .data                                    0x2000088c   Section       78  inv_mpu.o(.data)
    st                                       0x20000890   Data          56  inv_mpu.o(.data)
    gyro_orientation                         0x200008c8   Data           9  inv_mpu.o(.data)
    comp_orientation                         0x200008d1   Data           9  inv_mpu.o(.data)
    .data                                    0x200008dc   Section       20  hal_outputs.o(.data)
    .data                                    0x200008f0   Section        4  message_layer.o(.data)
    mh                                       0x200008f0   Data           4  message_layer.o(.data)
    .data                                    0x200008f4   Section       16  compass_vec_cal.o(.data)
    r1                                       0x200008f4   Data           4  compass_vec_cal.o(.data)
    r2                                       0x200008f8   Data           4  compass_vec_cal.o(.data)
    r3                                       0x200008fc   Data           4  compass_vec_cal.o(.data)
    r4                                       0x20000900   Data           4  compass_vec_cal.o(.data)
    .data                                    0x20000904   Section        4  mvars.o(.data)
    .data                                    0x20000908   Section        4  mvars.o(.data)
    .data                                    0x2000090c   Section        4  errno.o(.data)
    _errno                                   0x2000090c   Data           4  errno.o(.data)
    .bss                                     0x20000910   Section     1024  oled.o(.bss)
    .bss                                     0x20000d10   Section       16  encoder.o(.bss)
    .bss                                     0x20000d20   Section      448  pid.o(.bss)
    .bss                                     0x20000ee0   Section      468  sonic.o(.bss)
    .bss                                     0x200010b4   Section       58  usartdma.o(.bss)
    openmv                                   0x200010dc   Data          18  usartdma.o(.bss)
    .bss                                     0x200010f0   Section      100  usart2dma.o(.bss)
    .bss                                     0x20001154   Section      154  usart3dma.o(.bss)
    openmv                                   0x200011dc   Data          18  usart3dma.o(.bss)
    .bss                                     0x200011f0   Section      180  usart4dma.o(.bss)
    .bss                                     0x200012a4   Section       33  nrf24l01.o(.bss)
    .bss                                     0x200012c8   Section       16  inv_mpu_dmp_motion_driver.o(.bss)
    dmp                                      0x200012c8   Data          16  inv_mpu_dmp_motion_driver.o(.bss)
    .bss                                     0x200012d8   Section       40  empl_outputs.o(.bss)
    eMPL_out                                 0x200012d8   Data          40  empl_outputs.o(.bss)
    .bss                                     0x20001300   Section      728  data_builder.o(.bss)
    inv_data_builder                         0x20001300   Data         320  data_builder.o(.bss)
    sensors                                  0x20001440   Data         408  data_builder.o(.bss)
    .bss                                     0x200015d8   Section      196  hal_outputs.o(.bss)
    hal_out                                  0x200015d8   Data         196  hal_outputs.o(.bss)
    .bss                                     0x2000169c   Section      136  results_holder.o(.bss)
    rh                                       0x2000169c   Data         136  results_holder.o(.bss)
    .bss                                     0x20001724   Section       84  start_manager.o(.bss)
    inv_start_cb                             0x20001724   Data          84  start_manager.o(.bss)
    .bss                                     0x20001778   Section      408  storage_manager.o(.bss)
    ds                                       0x20001778   Data         408  storage_manager.o(.bss)
    .bss                                     0x20001910   Section     1120  compass_vec_cal.o(.bss)
    .bss                                     0x20001d70   Section      672  fast_no_motion.o(.bss)
    fnm_user                                 0x20001fd0   Data          64  fast_no_motion.o(.bss)
    .bss                                     0x20002010   Section      312  fusion_9axis.o(.bss)
    .bss                                     0x20002148   Section      452  gyro_tc.o(.bss)
    inv_gtc                                  0x20002148   Data         452  gyro_tc.o(.bss)
    .bss                                     0x2000230c   Section      184  mag_disturb.o(.bss)
    .bss                                     0x200023c4   Section      108  quaternion_supervisor.o(.bss)
    inv_quat_data                            0x200023c4   Data         108  quaternion_supervisor.o(.bss)
    .bss                                     0x20002430   Section     1208  accel_auto_cal.o(.bss)
    auto_cal                                 0x20002430   Data        1208  accel_auto_cal.o(.bss)
    HEAP                                     0x200028e8   Section      512  startup_stm32f40_41xxx.o(HEAP)
    STACK                                    0x20002ae8   Section     1024  startup_stm32f40_41xxx.o(STACK)

    Global Symbols

    Symbol Name                              Value     Ov Type        Size  Object(Section)

    BuildAttributes$$THM_ISAv4$E$P$D$K$B$S$7EM$VFPi3$EXTD16$VFPS$VFMA$PE$A:L22UL41UL21$X:L11$S22US41US21$IEEE1$IW$USESV6$~STKCKD$USESV7$~SHL$OTIME$ROPI$IEEEX$EBA8$MICROLIB$REQ8$PRES8$EABIv2 0x00000000   Number         0  anon$$obj.o ABSOLUTE
    __ARM_use_no_argv                        0x00000000   Number         0  main.o ABSOLUTE
    __use_no_errno                           0x00000000   Number         0  useno.o ABSOLUTE
    __use_no_exception_handling              0x00000000   Number         0  useno.o ABSOLUTE
    __use_no_fp                              0x00000000   Number         0  useno.o ABSOLUTE
    __use_no_heap                            0x00000000   Number         0  useno.o ABSOLUTE
    __use_no_heap_region                     0x00000000   Number         0  useno.o ABSOLUTE
    __use_no_semihosting                     0x00000000   Number         0  useno.o ABSOLUTE
    __use_no_semihosting_swi                 0x00000000   Number         0  useno.o ABSOLUTE
    __use_no_signal_handling                 0x00000000   Number         0  useno.o ABSOLUTE
    _printf_a                                0x00000000   Number         0  stubs.o ABSOLUTE
    _printf_c                                0x00000000   Number         0  stubs.o ABSOLUTE
    _printf_charcount                        0x00000000   Number         0  stubs.o ABSOLUTE
    _printf_d                                0x00000000   Number         0  stubs.o ABSOLUTE
    _printf_e                                0x00000000   Number         0  stubs.o ABSOLUTE
    _printf_f                                0x00000000   Number         0  stubs.o ABSOLUTE
    _printf_flags                            0x00000000   Number         0  stubs.o ABSOLUTE
    _printf_fp_dec                           0x00000000   Number         0  stubs.o ABSOLUTE
    _printf_fp_hex                           0x00000000   Number         0  stubs.o ABSOLUTE
    _printf_g                                0x00000000   Number         0  stubs.o ABSOLUTE
    _printf_i                                0x00000000   Number         0  stubs.o ABSOLUTE
    _printf_int_dec                          0x00000000   Number         0  stubs.o ABSOLUTE
    _printf_l                                0x00000000   Number         0  stubs.o ABSOLUTE
    _printf_lc                               0x00000000   Number         0  stubs.o ABSOLUTE
    _printf_ll                               0x00000000   Number         0  stubs.o ABSOLUTE
    _printf_lld                              0x00000000   Number         0  stubs.o ABSOLUTE
    _printf_lli                              0x00000000   Number         0  stubs.o ABSOLUTE
    _printf_llo                              0x00000000   Number         0  stubs.o ABSOLUTE
    _printf_llu                              0x00000000   Number         0  stubs.o ABSOLUTE
    _printf_llx                              0x00000000   Number         0  stubs.o ABSOLUTE
    _printf_longlong_dec                     0x00000000   Number         0  stubs.o ABSOLUTE
    _printf_longlong_hex                     0x00000000   Number         0  stubs.o ABSOLUTE
    _printf_longlong_oct                     0x00000000   Number         0  stubs.o ABSOLUTE
    _printf_ls                               0x00000000   Number         0  stubs.o ABSOLUTE
    _printf_mbtowc                           0x00000000   Number         0  stubs.o ABSOLUTE
    _printf_n                                0x00000000   Number         0  stubs.o ABSOLUTE
    _printf_o                                0x00000000   Number         0  stubs.o ABSOLUTE
    _printf_p                                0x00000000   Number         0  stubs.o ABSOLUTE
    _printf_percent                          0x00000000   Number         0  stubs.o ABSOLUTE
    _printf_pre_padding                      0x00000000   Number         0  stubs.o ABSOLUTE
    _printf_return_value                     0x00000000   Number         0  stubs.o ABSOLUTE
    _printf_s                                0x00000000   Number         0  stubs.o ABSOLUTE
    _printf_sizespec                         0x00000000   Number         0  stubs.o ABSOLUTE
    _printf_str                              0x00000000   Number         0  stubs.o ABSOLUTE
    _printf_truncate_signed                  0x00000000   Number         0  stubs.o ABSOLUTE
    _printf_truncate_unsigned                0x00000000   Number         0  stubs.o ABSOLUTE
    _printf_u                                0x00000000   Number         0  stubs.o ABSOLUTE
    _printf_wc                               0x00000000   Number         0  stubs.o ABSOLUTE
    _printf_wctomb                           0x00000000   Number         0  stubs.o ABSOLUTE
    _printf_widthprec                        0x00000000   Number         0  stubs.o ABSOLUTE
    _printf_x                                0x00000000   Number         0  stubs.o ABSOLUTE
    __cpp_initialize__aeabi_                  - Undefined Weak Reference
    __cxa_finalize                            - Undefined Weak Reference
    _clock_init                               - Undefined Weak Reference
    _microlib_exit                            - Undefined Weak Reference
    __Vectors_Size                           0x00000188   Number         0  startup_stm32f40_41xxx.o ABSOLUTE
    __Vectors                                0x08000000   Data           4  startup_stm32f40_41xxx.o(RESET)
    __Vectors_End                            0x08000188   Data           0  startup_stm32f40_41xxx.o(RESET)
    __main                                   0x08000189   Thumb Code     0  entry.o(.ARM.Collect$$$$00000000)
    _main_stk                                0x08000189   Thumb Code     0  entry2.o(.ARM.Collect$$$$00000001)
    _main_scatterload                        0x0800018d   Thumb Code     0  entry5.o(.ARM.Collect$$$$00000004)
    __main_after_scatterload                 0x08000191   Thumb Code     0  entry5.o(.ARM.Collect$$$$00000004)
    _main_clock                              0x08000191   Thumb Code     0  entry7b.o(.ARM.Collect$$$$00000008)
    _main_cpp_init                           0x08000191   Thumb Code     0  entry8b.o(.ARM.Collect$$$$0000000A)
    _main_init                               0x08000191   Thumb Code     0  entry9a.o(.ARM.Collect$$$$0000000B)
    __rt_final_cpp                           0x08000199   Thumb Code     0  entry10a.o(.ARM.Collect$$$$0000000D)
    __rt_final_exit                          0x08000199   Thumb Code     0  entry11a.o(.ARM.Collect$$$$0000000F)
    main                                     0x0800019d   Thumb Code  2880  main.o(.text)
    NMI_Handler                              0x08000d01   Thumb Code     2  stm32f4xx_it.o(.text)
    HardFault_Handler                        0x08000d03   Thumb Code     4  stm32f4xx_it.o(.text)
    MemManage_Handler                        0x08000d07   Thumb Code     4  stm32f4xx_it.o(.text)
    BusFault_Handler                         0x08000d0b   Thumb Code     4  stm32f4xx_it.o(.text)
    UsageFault_Handler                       0x08000d0f   Thumb Code     4  stm32f4xx_it.o(.text)
    SVC_Handler                              0x08000d13   Thumb Code     2  stm32f4xx_it.o(.text)
    DebugMon_Handler                         0x08000d15   Thumb Code     2  stm32f4xx_it.o(.text)
    PendSV_Handler                           0x08000d17   Thumb Code     2  stm32f4xx_it.o(.text)
    SysTick_Handler                          0x08000d19   Thumb Code     2  stm32f4xx_it.o(.text)
    SystemInit                               0x08000df9   Thumb Code    88  system_stm32f4xx.o(.text)
    SystemCoreClockUpdate                    0x08000e51   Thumb Code   174  system_stm32f4xx.o(.text)
    LED_Init                                 0x08000f2d   Thumb Code   168  led.o(.text)
    rgb_red                                  0x08000fd5   Thumb Code    20  led.o(.text)
    rgb_green                                0x08000fe9   Thumb Code    20  led.o(.text)
    rgb_out                                  0x08000ffd   Thumb Code    18  led.o(.text)
    KEY_Scan                                 0x08001029   Thumb Code   310  key.o(.text)
    mode_set                                 0x0800115f   Thumb Code  1256  key.o(.text)
    KEY_Init                                 0x08001647   Thumb Code    80  key.o(.text)
    MPU_Write_Byte                           0x080016ad   Thumb Code    76  mpu9250.o(.text)
    MPU_Read_Byte                            0x080016f9   Thumb Code    72  mpu9250.o(.text)
    MPU_Set_LPF                              0x08001741   Thumb Code    60  mpu9250.o(.text)
    MPU_Set_Rate                             0x0800177d   Thumb Code    60  mpu9250.o(.text)
    MPU_Set_Accel_Fsr                        0x080017b9   Thumb Code    18  mpu9250.o(.text)
    MPU_Set_Gyro_Fsr                         0x080017cb   Thumb Code    18  mpu9250.o(.text)
    MPU9250_Init                             0x080017dd   Thumb Code   176  mpu9250.o(.text)
    MPU_Read_Len                             0x0800188d   Thumb Code   116  mpu9250.o(.text)
    MPU_Get_Temperature                      0x08001901   Thumb Code   110  mpu9250.o(.text)
    MPU_Get_Gyroscope                        0x0800196f   Thumb Code    80  mpu9250.o(.text)
    MPU_Get_Accelerometer                    0x080019bf   Thumb Code    80  mpu9250.o(.text)
    MPU_Get_Magnetometer                     0x08001a0f   Thumb Code    90  mpu9250.o(.text)
    MPU_Write_Len                            0x08001a69   Thumb Code    96  mpu9250.o(.text)
    IIC_Init                                 0x08001add   Thumb Code    58  mpuiic.o(.text)
    IIC_Start                                0x08001b17   Thumb Code    64  mpuiic.o(.text)
    IIC_Stop                                 0x08001b57   Thumb Code    66  mpuiic.o(.text)
    IIC_Wait_Ack                             0x08001b99   Thumb Code    82  mpuiic.o(.text)
    IIC_Ack                                  0x08001beb   Thumb Code    70  mpuiic.o(.text)
    IIC_NAck                                 0x08001c31   Thumb Code    70  mpuiic.o(.text)
    IIC_Send_Byte                            0x08001c77   Thumb Code    92  mpuiic.o(.text)
    IIC_Read_Byte                            0x08001cd3   Thumb Code    96  mpuiic.o(.text)
    OLED_WR_Byte                             0x08001d41   Thumb Code    86  oled.o(.text)
    OLED_Refresh_Gram                        0x08001d97   Thumb Code    70  oled.o(.text)
    OLED_Display_On                          0x08001ddd   Thumb Code    28  oled.o(.text)
    OLED_Display_Off                         0x08001df9   Thumb Code    28  oled.o(.text)
    OLED_Clear                               0x08001e15   Thumb Code    42  oled.o(.text)
    OLED_DrawPoint                           0x08001e3f   Thumb Code   100  oled.o(.text)
    OLED_Fill                                0x08001ea3   Thumb Code    58  oled.o(.text)
    OLED_ShowChar                            0x08001edd   Thumb Code   254  oled.o(.text)
    mypow                                    0x08001fdb   Thumb Code    22  oled.o(.text)
    OLED_ShowNum                             0x08001ff1   Thumb Code   148  oled.o(.text)
    OLED_ShowString                          0x08002085   Thumb Code    94  oled.o(.text)
    OLED_ShowIntNum                          0x080020e3   Thumb Code   114  oled.o(.text)
    OLED_Show3FNum                           0x08002155   Thumb Code   640  oled.o(.text)
    OLED_ShowCHinese                         0x080023d5   Thumb Code   124  oled.o(.text)
    OLED_Init                                0x08002451   Thumb Code   278  oled.o(.text)
    Task_set                                 0x08002567   Thumb Code   284  oled.o(.text)
    Limit_Pwm_float                          0x0800268d   Thumb Code    30  control.o(.text)
    read_Front_sensor                        0x080026ab   Thumb Code   418  control.o(.text)
    TIM7_IRQHandler                          0x0800284d   Thumb Code  4264  control.o(.text)
    Read_EncoderL1                           0x08003919   Thumb Code    16  encoder.o(.text)
    Read_EncoderL2                           0x08003929   Thumb Code    14  encoder.o(.text)
    Read_EncoderR1                           0x08003937   Thumb Code    14  encoder.o(.text)
    Read_EncoderR2                           0x08003945   Thumb Code    14  encoder.o(.text)
    Read_Encoder                             0x08003953   Thumb Code    36  encoder.o(.text)
    Timer6_Init                              0x08003977   Thumb Code   102  encoder.o(.text)
    TIM2_Encoder_Init                        0x080039dd   Thumb Code   184  encoder.o(.text)
    TIM3_Encoder_Init                        0x08003a95   Thumb Code   190  encoder.o(.text)
    TIM4_Encoder_Init                        0x08003b53   Thumb Code   192  encoder.o(.text)
    TIM8_Encoder_Init                        0x08003c13   Thumb Code   190  encoder.o(.text)
    Encoder_Fabs                             0x08003cd1   Thumb Code   274  encoder.o(.text)
    XUNJI_Front_GPIO_Init                    0x08003df5   Thumb Code   132  xunji.o(.text)
    Read_Front_xunji_Date                    0x08003e79   Thumb Code    50  xunji.o(.text)
    MOTO_GPIO_Init                           0x08003eb9   Thumb Code   188  motor.o(.text)
    MotorA_Ctrl                              0x08003f75   Thumb Code    94  motor.o(.text)
    MotorB_Ctrl                              0x08003fd3   Thumb Code    94  motor.o(.text)
    MotorC_Ctrl                              0x08004031   Thumb Code    94  motor.o(.text)
    MotorD_Ctrl                              0x0800408f   Thumb Code    94  motor.o(.text)
    MotorALL_Ctrl                            0x080040ed   Thumb Code    76  motor.o(.text)
    start                                    0x08004139   Thumb Code     8  motor.o(.text)
    turn_1                                   0x08004141   Thumb Code    58  motor.o(.text)
    turn_F_R                                 0x0800417b   Thumb Code   230  motor.o(.text)
    turn_3_R                                 0x08004261   Thumb Code   340  motor.o(.text)
    turn_3_L                                 0x080043b5   Thumb Code   224  motor.o(.text)
    turn_B_R                                 0x08004495   Thumb Code   242  motor.o(.text)
    turn_F_L                                 0x08004587   Thumb Code   230  motor.o(.text)
    turn_B_L                                 0x0800466d   Thumb Code   276  motor.o(.text)
    turn_3_3                                 0x08004781   Thumb Code   254  motor.o(.text)
    turn_3_4                                 0x0800487f   Thumb Code   228  motor.o(.text)
    turn_3_5                                 0x08004963   Thumb Code   230  motor.o(.text)
    turn_3_6                                 0x08004a49   Thumb Code   224  motor.o(.text)
    turn_3_7                                 0x08004b29   Thumb Code   316  motor.o(.text)
    turn_3_8                                 0x08004c65   Thumb Code   228  motor.o(.text)
    turn_3_9                                 0x08004d49   Thumb Code   216  motor.o(.text)
    turn_3_10                                0x08004e21   Thumb Code   232  motor.o(.text)
    go_stright_5                             0x08004f09   Thumb Code   220  motor.o(.text)
    go_stright                               0x08004fe5   Thumb Code   354  motor.o(.text)
    go_stright_3                             0x08005147   Thumb Code   216  motor.o(.text)
    go_back                                  0x0800521f   Thumb Code   206  motor.o(.text)
    go_3_3                                   0x080052ed   Thumb Code   270  motor.o(.text)
    go_3_4                                   0x080053fb   Thumb Code   206  motor.o(.text)
    go_3_5                                   0x080054c9   Thumb Code   206  motor.o(.text)
    go_3_6                                   0x08005597   Thumb Code   206  motor.o(.text)
    go_right_5                               0x08005665   Thumb Code   206  motor.o(.text)
    go_right                                 0x08005733   Thumb Code   248  motor.o(.text)
    go_right_3                               0x0800582b   Thumb Code   206  motor.o(.text)
    go_B_right                               0x080058f9   Thumb Code   206  motor.o(.text)
    go_B_left                                0x080059c7   Thumb Code   206  motor.o(.text)
    go_left_5                                0x08005a95   Thumb Code   206  motor.o(.text)
    go_left                                  0x08005b63   Thumb Code   252  motor.o(.text)
    go_left_3                                0x08005c5f   Thumb Code   206  motor.o(.text)
    PID_Control4                             0x08005d55   Thumb Code   242  pid.o(.text)
    PID_Control5                             0x08005e47   Thumb Code   214  pid.o(.text)
    PID_Init                                 0x08005f1d   Thumb Code    94  pid.o(.text)
    PID_Control7                             0x08005f7b   Thumb Code   242  pid.o(.text)
    TIM2_PWM_Init                            0x0800609d   Thumb Code   272  pwm.o(.text)
    TIM8_Steer_Init                          0x080061ad   Thumb Code   258  pwm.o(.text)
    TIM1_Pwm_Init                            0x080062af   Thumb Code   258  pwm.o(.text)
    TIM3_PWM_Init                            0x080063b1   Thumb Code   212  pwm.o(.text)
    TIM10_PWM_Init                           0x08006485   Thumb Code   184  pwm.o(.text)
    TIM9_PWM_Init                            0x0800653d   Thumb Code   194  pwm.o(.text)
    TIM7_Cnt_Init                            0x08006611   Thumb Code    88  timer.o(.text)
    Ultra_Init                               0x0800666d   Thumb Code    54  sonic.o(.text)
    Sonic_Get_Distance                       0x080066a3   Thumb Code   234  sonic.o(.text)
    TIM5_Sonic_Cap_Init                      0x0800678d   Thumb Code   236  sonic.o(.text)
    TIM5_IRQHandler                          0x08006879   Thumb Code   376  sonic.o(.text)
    Ultrasonic_Trig_Start                    0x080069f1   Thumb Code    56  sonic.o(.text)
    Sonic_Length                             0x08006a29   Thumb Code   412  sonic.o(.text)
    Sonic_Length_l                           0x08006bc5   Thumb Code   344  sonic.o(.text)
    Ultra_Test1                              0x08006d1d   Thumb Code    76  sonic.o(.text)
    Ultra_Test2                              0x08006d69   Thumb Code   112  sonic.o(.text)
    medFilter                                0x08006e01   Thumb Code   192  filter.o(.text)
    meanFilter                               0x08006ec1   Thumb Code   100  filter.o(.text)
    meanFilter1                              0x08006f25   Thumb Code    90  filter.o(.text)
    enhanceMeanFilter                        0x08006f7f   Thumb Code   190  filter.o(.text)
    Average_Filter                           0x0800703d   Thumb Code   136  filter.o(.text)
    Enaverage_Filter                         0x080070c5   Thumb Code   280  filter.o(.text)
    EXTIX2_Init                              0x080071f1   Thumb Code    80  exti.o(.text)
    EXTI3_IRQHandler                         0x08007241   Thumb Code   186  exti.o(.text)
    EXTIX1_Init                              0x080072fb   Thumb Code    82  exti.o(.text)
    EXTI0_IRQHandler                         0x0800734d   Thumb Code   102  exti.o(.text)
    EXTIX3_Init                              0x080073b3   Thumb Code    82  exti.o(.text)
    EXTI2_IRQHandler                         0x08007405   Thumb Code   154  exti.o(.text)
    EXTIX4_Init                              0x0800749f   Thumb Code    84  exti.o(.text)
    EXTI9_5_IRQHandler                       0x080074f3   Thumb Code   220  exti.o(.text)
    EXTIX5_Init                              0x080075cf   Thumb Code    84  exti.o(.text)
    EXTI15_10_IRQHandler                     0x08007623   Thumb Code  1058  exti.o(.text)
    EXTIX6_Init                              0x08007a45   Thumb Code   132  exti.o(.text)
    EXTI1_IRQHandler                         0x08007ac9   Thumb Code   308  exti.o(.text)
    BUJIN_Init                               0x08007c19   Thumb Code   204  bujin.o(.text)
    bujin_B_control                          0x08007ce5   Thumb Code    72  bujin.o(.text)
    bujin_A_control                          0x08007d2d   Thumb Code    72  bujin.o(.text)
    Step_Angle_Control                       0x08007d75   Thumb Code    44  bujin.o(.text)
    TIM6_Cnt_Init                            0x08007da1   Thumb Code    88  bujin.o(.text)
    TIM6_DAC_IRQHandler                      0x08007df9   Thumb Code   232  bujin.o(.text)
    USART1_Init                              0x08007f39   Thumb Code   502  usartdma.o(.text)
    USART1_DMATransfer                       0x0800812f   Thumb Code    42  usartdma.o(.text)
    DMA2_S5_Reset                            0x08008159   Thumb Code    42  usartdma.o(.text)
    USART1_IRQHandler                        0x08008183   Thumb Code   278  usartdma.o(.text)
    DMA2_Stream7_IRQHandler                  0x08008299   Thumb Code    44  usartdma.o(.text)
    USART2_Init                              0x080082e9   Thumb Code   502  usart2dma.o(.text)
    USART2_DMATransfer                       0x080084df   Thumb Code    46  usart2dma.o(.text)
    DMA1_S5_Reset                            0x0800850d   Thumb Code    42  usart2dma.o(.text)
    USART2_IRQHandler                        0x08008537   Thumb Code   280  usart2dma.o(.text)
    DMA1_Stream6_IRQHandler                  0x0800864f   Thumb Code    44  usart2dma.o(.text)
    HMISendb                                 0x0800867b   Thumb Code    52  usart2dma.o(.text)
    HMISendstart                             0x080086af   Thumb Code    22  usart2dma.o(.text)
    HMISends                                 0x080086c5   Thumb Code    48  usart2dma.o(.text)
    USART3_Init                              0x08008725   Thumb Code   164  usart3dma.o(.text)
    USART3_DMATransfer                       0x080087c9   Thumb Code    38  usart3dma.o(.text)
    USART3_IRQHandler                        0x080087ef   Thumb Code    94  usart3dma.o(.text)
    DMA1_Stream3_IRQHandler                  0x0800884d   Thumb Code    42  usart3dma.o(.text)
    DMA1_S1_Reset                            0x08008877   Thumb Code    42  usart3dma.o(.text)
    USART3_send_byte                         0x080088a1   Thumb Code    26  usart3dma.o(.text)
    USART3_Send_bytes                        0x080088bb   Thumb Code    28  usart3dma.o(.text)
    USART3_Send                              0x080088d7   Thumb Code    46  usart3dma.o(.text)
    Float2Byte                               0x08008925   Thumb Code    28  usart4dma.o(.text)
    DataScope_Get_Channel_Data               0x08008941   Thumb Code   162  usart4dma.o(.text)
    DataScope_Data_Generate                  0x080089e3   Thumb Code   148  usart4dma.o(.text)
    USART4_Init                              0x08008a77   Thumb Code   504  usart4dma.o(.text)
    UART4_DMATransfer                        0x08008c6f   Thumb Code    36  usart4dma.o(.text)
    DMA1_S2_Reset                            0x08008c93   Thumb Code    42  usart4dma.o(.text)
    UART4_IRQHandler                         0x08008cbd   Thumb Code   314  usart4dma.o(.text)
    Read_LaserDis                            0x08008df7   Thumb Code   190  usart4dma.o(.text)
    Set_LaserDis                             0x08008eb5   Thumb Code   154  usart4dma.o(.text)
    USART4_send_byte                         0x08008f4f   Thumb Code    26  usart4dma.o(.text)
    USART4_Send_bytes                        0x08008f69   Thumb Code    28  usart4dma.o(.text)
    USART4_Send                              0x08008f85   Thumb Code    46  usart4dma.o(.text)
    send_com                                 0x08008fb3   Thumb Code    28  usart4dma.o(.text)
    DMA1_Stream4_IRQHandler                  0x08008fcf   Thumb Code    42  usart4dma.o(.text)
    NRF24L01_Read_Buf                        0x0800901d   Thumb Code    56  nrf24l01.o(.text)
    NRF24L01_Write_Buf                       0x08009055   Thumb Code    56  nrf24l01.o(.text)
    NRF24L01_Check                           0x0800908d   Thumb Code    72  nrf24l01.o(.text)
    NRF24L01_IO_Init                         0x080090d5   Thumb Code   132  nrf24l01.o(.text)
    NRF24L01_Init                            0x08009159   Thumb Code    84  nrf24l01.o(.text)
    NRF24L01_Write_Reg                       0x080091ad   Thumb Code    38  nrf24l01.o(.text)
    NRF24L01_Read_Reg                        0x080091d3   Thumb Code    36  nrf24l01.o(.text)
    NRF24L01_TxPacket                        0x080091f7   Thumb Code    96  nrf24l01.o(.text)
    NRF24L01_RxPacket                        0x08009257   Thumb Code    58  nrf24l01.o(.text)
    NRF24L01_RX_Mode                         0x08009291   Thumb Code    78  nrf24l01.o(.text)
    NRF24L01_TX_Mode                         0x080092df   Thumb Code    88  nrf24l01.o(.text)
    NRF24L01_Com_RX                          0x08009337   Thumb Code   164  nrf24l01.o(.text)
    NRF24L01_Com_TX                          0x080093db   Thumb Code   184  nrf24l01.o(.text)
    NRF24L01_Rece_mpu                        0x08009493   Thumb Code    18  nrf24l01.o(.text)
    NRF_ReceiveData                          0x080094a5   Thumb Code    56  nrf24l01.o(.text)
    NRF24L01_Test                            0x080094dd   Thumb Code   482  nrf24l01.o(.text)
    NRF_SPI3_Init                            0x08009725   Thumb Code   178  spi.o(.text)
    NRF_SPI3_SetSpeed                        0x080097d7   Thumb Code    36  spi.o(.text)
    NRF_SPI3_ReadWriteByte                   0x080097fb   Thumb Code    50  spi.o(.text)
    delay_init                               0x08009835   Thumb Code    52  delay.o(.text)
    delay_us                                 0x08009869   Thumb Code    72  delay.o(.text)
    delay_xms                                0x080098b1   Thumb Code    72  delay.o(.text)
    delay_ms                                 0x080098f9   Thumb Code    56  delay.o(.text)
    _sys_exit                                0x08009939   Thumb Code     4  usart.o(.text)
    fputc                                    0x0800993d   Thumb Code    22  usart.o(.text)
    uart_init2                               0x08009953   Thumb Code   168  usart.o(.text)
    Reset_Handler                            0x08009a09   Thumb Code     8  startup_stm32f40_41xxx.o(.text)
    ADC_IRQHandler                           0x08009a23   Thumb Code     0  startup_stm32f40_41xxx.o(.text)
    CAN1_RX0_IRQHandler                      0x08009a23   Thumb Code     0  startup_stm32f40_41xxx.o(.text)
    CAN1_RX1_IRQHandler                      0x08009a23   Thumb Code     0  startup_stm32f40_41xxx.o(.text)
    CAN1_SCE_IRQHandler                      0x08009a23   Thumb Code     0  startup_stm32f40_41xxx.o(.text)
    CAN1_TX_IRQHandler                       0x08009a23   Thumb Code     0  startup_stm32f40_41xxx.o(.text)
    CAN2_RX0_IRQHandler                      0x08009a23   Thumb Code     0  startup_stm32f40_41xxx.o(.text)
    CAN2_RX1_IRQHandler                      0x08009a23   Thumb Code     0  startup_stm32f40_41xxx.o(.text)
    CAN2_SCE_IRQHandler                      0x08009a23   Thumb Code     0  startup_stm32f40_41xxx.o(.text)
    CAN2_TX_IRQHandler                       0x08009a23   Thumb Code     0  startup_stm32f40_41xxx.o(.text)
    CRYP_IRQHandler                          0x08009a23   Thumb Code     0  startup_stm32f40_41xxx.o(.text)
    DCMI_IRQHandler                          0x08009a23   Thumb Code     0  startup_stm32f40_41xxx.o(.text)
    DMA1_Stream0_IRQHandler                  0x08009a23   Thumb Code     0  startup_stm32f40_41xxx.o(.text)
    DMA1_Stream1_IRQHandler                  0x08009a23   Thumb Code     0  startup_stm32f40_41xxx.o(.text)
    DMA1_Stream2_IRQHandler                  0x08009a23   Thumb Code     0  startup_stm32f40_41xxx.o(.text)
    DMA1_Stream5_IRQHandler                  0x08009a23   Thumb Code     0  startup_stm32f40_41xxx.o(.text)
    DMA1_Stream7_IRQHandler                  0x08009a23   Thumb Code     0  startup_stm32f40_41xxx.o(.text)
    DMA2_Stream0_IRQHandler                  0x08009a23   Thumb Code     0  startup_stm32f40_41xxx.o(.text)
    DMA2_Stream1_IRQHandler                  0x08009a23   Thumb Code     0  startup_stm32f40_41xxx.o(.text)
    DMA2_Stream2_IRQHandler                  0x08009a23   Thumb Code     0  startup_stm32f40_41xxx.o(.text)
    DMA2_Stream3_IRQHandler                  0x08009a23   Thumb Code     0  startup_stm32f40_41xxx.o(.text)
    DMA2_Stream4_IRQHandler                  0x08009a23   Thumb Code     0  startup_stm32f40_41xxx.o(.text)
    DMA2_Stream5_IRQHandler                  0x08009a23   Thumb Code     0  startup_stm32f40_41xxx.o(.text)
    DMA2_Stream6_IRQHandler                  0x08009a23   Thumb Code     0  startup_stm32f40_41xxx.o(.text)
    ETH_IRQHandler                           0x08009a23   Thumb Code     0  startup_stm32f40_41xxx.o(.text)
    ETH_WKUP_IRQHandler                      0x08009a23   Thumb Code     0  startup_stm32f40_41xxx.o(.text)
    EXTI4_IRQHandler                         0x08009a23   Thumb Code     0  startup_stm32f40_41xxx.o(.text)
    FLASH_IRQHandler                         0x08009a23   Thumb Code     0  startup_stm32f40_41xxx.o(.text)
    FPU_IRQHandler                           0x08009a23   Thumb Code     0  startup_stm32f40_41xxx.o(.text)
    FSMC_IRQHandler                          0x08009a23   Thumb Code     0  startup_stm32f40_41xxx.o(.text)
    HASH_RNG_IRQHandler                      0x08009a23   Thumb Code     0  startup_stm32f40_41xxx.o(.text)
    I2C1_ER_IRQHandler                       0x08009a23   Thumb Code     0  startup_stm32f40_41xxx.o(.text)
    I2C1_EV_IRQHandler                       0x08009a23   Thumb Code     0  startup_stm32f40_41xxx.o(.text)
    I2C2_ER_IRQHandler                       0x08009a23   Thumb Code     0  startup_stm32f40_41xxx.o(.text)
    I2C2_EV_IRQHandler                       0x08009a23   Thumb Code     0  startup_stm32f40_41xxx.o(.text)
    I2C3_ER_IRQHandler                       0x08009a23   Thumb Code     0  startup_stm32f40_41xxx.o(.text)
    I2C3_EV_IRQHandler                       0x08009a23   Thumb Code     0  startup_stm32f40_41xxx.o(.text)
    OTG_FS_IRQHandler                        0x08009a23   Thumb Code     0  startup_stm32f40_41xxx.o(.text)
    OTG_FS_WKUP_IRQHandler                   0x08009a23   Thumb Code     0  startup_stm32f40_41xxx.o(.text)
    OTG_HS_EP1_IN_IRQHandler                 0x08009a23   Thumb Code     0  startup_stm32f40_41xxx.o(.text)
    OTG_HS_EP1_OUT_IRQHandler                0x08009a23   Thumb Code     0  startup_stm32f40_41xxx.o(.text)
    OTG_HS_IRQHandler                        0x08009a23   Thumb Code     0  startup_stm32f40_41xxx.o(.text)
    OTG_HS_WKUP_IRQHandler                   0x08009a23   Thumb Code     0  startup_stm32f40_41xxx.o(.text)
    PVD_IRQHandler                           0x08009a23   Thumb Code     0  startup_stm32f40_41xxx.o(.text)
    RCC_IRQHandler                           0x08009a23   Thumb Code     0  startup_stm32f40_41xxx.o(.text)
    RTC_Alarm_IRQHandler                     0x08009a23   Thumb Code     0  startup_stm32f40_41xxx.o(.text)
    RTC_WKUP_IRQHandler                      0x08009a23   Thumb Code     0  startup_stm32f40_41xxx.o(.text)
    SDIO_IRQHandler                          0x08009a23   Thumb Code     0  startup_stm32f40_41xxx.o(.text)
    SPI1_IRQHandler                          0x08009a23   Thumb Code     0  startup_stm32f40_41xxx.o(.text)
    SPI2_IRQHandler                          0x08009a23   Thumb Code     0  startup_stm32f40_41xxx.o(.text)
    SPI3_IRQHandler                          0x08009a23   Thumb Code     0  startup_stm32f40_41xxx.o(.text)
    TAMP_STAMP_IRQHandler                    0x08009a23   Thumb Code     0  startup_stm32f40_41xxx.o(.text)
    TIM1_BRK_TIM9_IRQHandler                 0x08009a23   Thumb Code     0  startup_stm32f40_41xxx.o(.text)
    TIM1_CC_IRQHandler                       0x08009a23   Thumb Code     0  startup_stm32f40_41xxx.o(.text)
    TIM1_TRG_COM_TIM11_IRQHandler            0x08009a23   Thumb Code     0  startup_stm32f40_41xxx.o(.text)
    TIM1_UP_TIM10_IRQHandler                 0x08009a23   Thumb Code     0  startup_stm32f40_41xxx.o(.text)
    TIM2_IRQHandler                          0x08009a23   Thumb Code     0  startup_stm32f40_41xxx.o(.text)
    TIM3_IRQHandler                          0x08009a23   Thumb Code     0  startup_stm32f40_41xxx.o(.text)
    TIM4_IRQHandler                          0x08009a23   Thumb Code     0  startup_stm32f40_41xxx.o(.text)
    TIM8_BRK_TIM12_IRQHandler                0x08009a23   Thumb Code     0  startup_stm32f40_41xxx.o(.text)
    TIM8_CC_IRQHandler                       0x08009a23   Thumb Code     0  startup_stm32f40_41xxx.o(.text)
    TIM8_TRG_COM_TIM14_IRQHandler            0x08009a23   Thumb Code     0  startup_stm32f40_41xxx.o(.text)
    TIM8_UP_TIM13_IRQHandler                 0x08009a23   Thumb Code     0  startup_stm32f40_41xxx.o(.text)
    UART5_IRQHandler                         0x08009a23   Thumb Code     0  startup_stm32f40_41xxx.o(.text)
    USART6_IRQHandler                        0x08009a23   Thumb Code     0  startup_stm32f40_41xxx.o(.text)
    WWDG_IRQHandler                          0x08009a23   Thumb Code     0  startup_stm32f40_41xxx.o(.text)
    NVIC_PriorityGroupConfig                 0x08009a2d   Thumb Code    10  misc.o(.text)
    NVIC_Init                                0x08009a37   Thumb Code   106  misc.o(.text)
    NVIC_SetVectorTable                      0x08009aa1   Thumb Code    14  misc.o(.text)
    NVIC_SystemLPConfig                      0x08009aaf   Thumb Code    34  misc.o(.text)
    SysTick_CLKSourceConfig                  0x08009ad1   Thumb Code    40  misc.o(.text)
    GPIO_DeInit                              0x08009b0d   Thumb Code   268  stm32f4xx_gpio.o(.text)
    GPIO_Init                                0x08009c19   Thumb Code   144  stm32f4xx_gpio.o(.text)
    GPIO_StructInit                          0x08009ca9   Thumb Code    18  stm32f4xx_gpio.o(.text)
    GPIO_PinLockConfig                       0x08009cbb   Thumb Code    34  stm32f4xx_gpio.o(.text)
    GPIO_ReadInputDataBit                    0x08009cdd   Thumb Code    18  stm32f4xx_gpio.o(.text)
    GPIO_ReadInputData                       0x08009cef   Thumb Code     8  stm32f4xx_gpio.o(.text)
    GPIO_ReadOutputDataBit                   0x08009cf7   Thumb Code    18  stm32f4xx_gpio.o(.text)
    GPIO_ReadOutputData                      0x08009d09   Thumb Code     8  stm32f4xx_gpio.o(.text)
    GPIO_SetBits                             0x08009d11   Thumb Code     4  stm32f4xx_gpio.o(.text)
    GPIO_ResetBits                           0x08009d15   Thumb Code     4  stm32f4xx_gpio.o(.text)
    GPIO_WriteBit                            0x08009d19   Thumb Code    10  stm32f4xx_gpio.o(.text)
    GPIO_Write                               0x08009d23   Thumb Code     4  stm32f4xx_gpio.o(.text)
    GPIO_ToggleBits                          0x08009d27   Thumb Code     8  stm32f4xx_gpio.o(.text)
    GPIO_PinAFConfig                         0x08009d2f   Thumb Code    70  stm32f4xx_gpio.o(.text)
    RCC_DeInit                               0x08009da1   Thumb Code    82  stm32f4xx_rcc.o(.text)
    RCC_HSEConfig                            0x08009df3   Thumb Code    14  stm32f4xx_rcc.o(.text)
    RCC_GetFlagStatus                        0x08009e01   Thumb Code    60  stm32f4xx_rcc.o(.text)
    RCC_WaitForHSEStartUp                    0x08009e3d   Thumb Code    56  stm32f4xx_rcc.o(.text)
    RCC_AdjustHSICalibrationValue            0x08009e75   Thumb Code    20  stm32f4xx_rcc.o(.text)
    RCC_HSICmd                               0x08009e89   Thumb Code     6  stm32f4xx_rcc.o(.text)
    RCC_LSEConfig                            0x08009e8f   Thumb Code    46  stm32f4xx_rcc.o(.text)
    RCC_LSICmd                               0x08009ebd   Thumb Code     6  stm32f4xx_rcc.o(.text)
    RCC_PLLConfig                            0x08009ec3   Thumb Code    32  stm32f4xx_rcc.o(.text)
    RCC_PLLCmd                               0x08009ee3   Thumb Code     6  stm32f4xx_rcc.o(.text)
    RCC_PLLI2SConfig                         0x08009ee9   Thumb Code    14  stm32f4xx_rcc.o(.text)
    RCC_PLLI2SCmd                            0x08009ef7   Thumb Code     6  stm32f4xx_rcc.o(.text)
    RCC_PLLSAIConfig                         0x08009efd   Thumb Code    20  stm32f4xx_rcc.o(.text)
    RCC_PLLSAICmd                            0x08009f11   Thumb Code     6  stm32f4xx_rcc.o(.text)
    RCC_ClockSecuritySystemCmd               0x08009f17   Thumb Code     6  stm32f4xx_rcc.o(.text)
    RCC_MCO1Config                           0x08009f1d   Thumb Code    28  stm32f4xx_rcc.o(.text)
    RCC_MCO2Config                           0x08009f39   Thumb Code    28  stm32f4xx_rcc.o(.text)
    RCC_SYSCLKConfig                         0x08009f55   Thumb Code    20  stm32f4xx_rcc.o(.text)
    RCC_GetSYSCLKSource                      0x08009f69   Thumb Code    12  stm32f4xx_rcc.o(.text)
    RCC_HCLKConfig                           0x08009f75   Thumb Code    20  stm32f4xx_rcc.o(.text)
    RCC_PCLK1Config                          0x08009f89   Thumb Code    20  stm32f4xx_rcc.o(.text)
    RCC_PCLK2Config                          0x08009f9d   Thumb Code    22  stm32f4xx_rcc.o(.text)
    RCC_GetClocksFreq                        0x08009fb3   Thumb Code   222  stm32f4xx_rcc.o(.text)
    RCC_RTCCLKConfig                         0x0800a091   Thumb Code    54  stm32f4xx_rcc.o(.text)
    RCC_RTCCLKCmd                            0x0800a0c7   Thumb Code     8  stm32f4xx_rcc.o(.text)
    RCC_BackupResetCmd                       0x0800a0cf   Thumb Code     8  stm32f4xx_rcc.o(.text)
    RCC_I2SCLKConfig                         0x0800a0d7   Thumb Code     6  stm32f4xx_rcc.o(.text)
    RCC_SAIPLLI2SClkDivConfig                0x0800a0dd   Thumb Code    26  stm32f4xx_rcc.o(.text)
    RCC_SAIPLLSAIClkDivConfig                0x0800a0f7   Thumb Code    28  stm32f4xx_rcc.o(.text)
    RCC_SAIBlockACLKConfig                   0x0800a113   Thumb Code    20  stm32f4xx_rcc.o(.text)
    RCC_SAIBlockBCLKConfig                   0x0800a127   Thumb Code    20  stm32f4xx_rcc.o(.text)
    RCC_LTDCCLKDivConfig                     0x0800a13b   Thumb Code    20  stm32f4xx_rcc.o(.text)
    RCC_TIMCLKPresConfig                     0x0800a14f   Thumb Code     6  stm32f4xx_rcc.o(.text)
    RCC_AHB1PeriphClockCmd                   0x0800a155   Thumb Code    34  stm32f4xx_rcc.o(.text)
    RCC_AHB2PeriphClockCmd                   0x0800a177   Thumb Code    78  stm32f4xx_rcc.o(.text)
    RCC_AHB3PeriphClockCmd                   0x0800a1c5   Thumb Code    34  stm32f4xx_rcc.o(.text)
    RCC_APB1PeriphClockCmd                   0x0800a1e7   Thumb Code    34  stm32f4xx_rcc.o(.text)
    RCC_APB2PeriphClockCmd                   0x0800a209   Thumb Code    34  stm32f4xx_rcc.o(.text)
    RCC_AHB1PeriphResetCmd                   0x0800a22b   Thumb Code    34  stm32f4xx_rcc.o(.text)
    RCC_AHB2PeriphResetCmd                   0x0800a24d   Thumb Code    34  stm32f4xx_rcc.o(.text)
    RCC_AHB3PeriphResetCmd                   0x0800a26f   Thumb Code    34  stm32f4xx_rcc.o(.text)
    RCC_APB1PeriphResetCmd                   0x0800a291   Thumb Code    34  stm32f4xx_rcc.o(.text)
    RCC_APB2PeriphResetCmd                   0x0800a2b3   Thumb Code    34  stm32f4xx_rcc.o(.text)
    RCC_AHB1PeriphClockLPModeCmd             0x0800a2d5   Thumb Code    34  stm32f4xx_rcc.o(.text)
    RCC_AHB2PeriphClockLPModeCmd             0x0800a2f7   Thumb Code    34  stm32f4xx_rcc.o(.text)
    RCC_AHB3PeriphClockLPModeCmd             0x0800a319   Thumb Code    34  stm32f4xx_rcc.o(.text)
    RCC_APB1PeriphClockLPModeCmd             0x0800a33b   Thumb Code    34  stm32f4xx_rcc.o(.text)
    RCC_APB2PeriphClockLPModeCmd             0x0800a35d   Thumb Code    34  stm32f4xx_rcc.o(.text)
    RCC_LSEModeConfig                        0x0800a37f   Thumb Code    40  stm32f4xx_rcc.o(.text)
    RCC_ITConfig                             0x0800a3a7   Thumb Code    34  stm32f4xx_rcc.o(.text)
    RCC_ClearFlag                            0x0800a3c9   Thumb Code    18  stm32f4xx_rcc.o(.text)
    RCC_GetITStatus                          0x0800a3db   Thumb Code    22  stm32f4xx_rcc.o(.text)
    RCC_ClearITPendingBit                    0x0800a3f1   Thumb Code     8  stm32f4xx_rcc.o(.text)
    SYSCFG_DeInit                            0x0800a3fd   Thumb Code    22  stm32f4xx_syscfg.o(.text)
    SYSCFG_MemoryRemapConfig                 0x0800a413   Thumb Code     6  stm32f4xx_syscfg.o(.text)
    SYSCFG_MemorySwappingBank                0x0800a419   Thumb Code     6  stm32f4xx_syscfg.o(.text)
    SYSCFG_EXTILineConfig                    0x0800a41f   Thumb Code    66  stm32f4xx_syscfg.o(.text)
    SYSCFG_ETH_MediaInterfaceConfig          0x0800a461   Thumb Code     8  stm32f4xx_syscfg.o(.text)
    SYSCFG_CompensationCellCmd               0x0800a469   Thumb Code     6  stm32f4xx_syscfg.o(.text)
    SYSCFG_GetCompensationCellStatus         0x0800a46f   Thumb Code    22  stm32f4xx_syscfg.o(.text)
    USART_DeInit                             0x0800a491   Thumb Code   206  stm32f4xx_usart.o(.text)
    USART_Init                               0x0800a55f   Thumb Code   204  stm32f4xx_usart.o(.text)
    USART_StructInit                         0x0800a62b   Thumb Code    24  stm32f4xx_usart.o(.text)
    USART_ClockInit                          0x0800a643   Thumb Code    32  stm32f4xx_usart.o(.text)
    USART_ClockStructInit                    0x0800a663   Thumb Code    12  stm32f4xx_usart.o(.text)
    USART_Cmd                                0x0800a66f   Thumb Code    24  stm32f4xx_usart.o(.text)
    USART_SetPrescaler                       0x0800a687   Thumb Code    16  stm32f4xx_usart.o(.text)
    USART_OverSampling8Cmd                   0x0800a697   Thumb Code    22  stm32f4xx_usart.o(.text)
    USART_OneBitMethodCmd                    0x0800a6ad   Thumb Code    24  stm32f4xx_usart.o(.text)
    USART_SendData                           0x0800a6c5   Thumb Code     8  stm32f4xx_usart.o(.text)
    USART_ReceiveData                        0x0800a6cd   Thumb Code    10  stm32f4xx_usart.o(.text)
    USART_SetAddress                         0x0800a6d7   Thumb Code    18  stm32f4xx_usart.o(.text)
    USART_ReceiverWakeUpCmd                  0x0800a6e9   Thumb Code    24  stm32f4xx_usart.o(.text)
    USART_WakeUpConfig                       0x0800a701   Thumb Code    18  stm32f4xx_usart.o(.text)
    USART_LINBreakDetectLengthConfig         0x0800a713   Thumb Code    18  stm32f4xx_usart.o(.text)
    USART_LINCmd                             0x0800a725   Thumb Code    24  stm32f4xx_usart.o(.text)
    USART_SendBreak                          0x0800a73d   Thumb Code    10  stm32f4xx_usart.o(.text)
    USART_HalfDuplexCmd                      0x0800a747   Thumb Code    24  stm32f4xx_usart.o(.text)
    USART_SetGuardTime                       0x0800a75f   Thumb Code    16  stm32f4xx_usart.o(.text)
    USART_SmartCardCmd                       0x0800a76f   Thumb Code    24  stm32f4xx_usart.o(.text)
    USART_SmartCardNACKCmd                   0x0800a787   Thumb Code    24  stm32f4xx_usart.o(.text)
    USART_IrDAConfig                         0x0800a79f   Thumb Code    18  stm32f4xx_usart.o(.text)
    USART_IrDACmd                            0x0800a7b1   Thumb Code    24  stm32f4xx_usart.o(.text)
    USART_DMACmd                             0x0800a7c9   Thumb Code    18  stm32f4xx_usart.o(.text)
    USART_ITConfig                           0x0800a7db   Thumb Code    74  stm32f4xx_usart.o(.text)
    USART_GetFlagStatus                      0x0800a825   Thumb Code    26  stm32f4xx_usart.o(.text)
    USART_ClearFlag                          0x0800a83f   Thumb Code    18  stm32f4xx_usart.o(.text)
    USART_GetITStatus                        0x0800a851   Thumb Code   118  stm32f4xx_usart.o(.text)
    USART_ClearITPendingBit                  0x0800a8c7   Thumb Code    30  stm32f4xx_usart.o(.text)
    TIM_DeInit                               0x0800a8e5   Thumb Code   346  stm32f4xx_tim.o(.text)
    TIM_TimeBaseInit                         0x0800aa3f   Thumb Code   104  stm32f4xx_tim.o(.text)
    TIM_TimeBaseStructInit                   0x0800aaa7   Thumb Code    18  stm32f4xx_tim.o(.text)
    TIM_PrescalerConfig                      0x0800aab9   Thumb Code     6  stm32f4xx_tim.o(.text)
    TIM_CounterModeConfig                    0x0800aabf   Thumb Code    18  stm32f4xx_tim.o(.text)
    TIM_SetCounter                           0x0800aad1   Thumb Code     4  stm32f4xx_tim.o(.text)
    TIM_SetAutoreload                        0x0800aad5   Thumb Code     4  stm32f4xx_tim.o(.text)
    TIM_GetCounter                           0x0800aad9   Thumb Code     6  stm32f4xx_tim.o(.text)
    TIM_GetPrescaler                         0x0800aadf   Thumb Code     6  stm32f4xx_tim.o(.text)
    TIM_UpdateDisableConfig                  0x0800aae5   Thumb Code    24  stm32f4xx_tim.o(.text)
    TIM_UpdateRequestConfig                  0x0800aafd   Thumb Code    24  stm32f4xx_tim.o(.text)
    TIM_ARRPreloadConfig                     0x0800ab15   Thumb Code    24  stm32f4xx_tim.o(.text)
    TIM_SelectOnePulseMode                   0x0800ab2d   Thumb Code    18  stm32f4xx_tim.o(.text)
    TIM_SetClockDivision                     0x0800ab3f   Thumb Code    18  stm32f4xx_tim.o(.text)
    TIM_Cmd                                  0x0800ab51   Thumb Code    24  stm32f4xx_tim.o(.text)
    TIM_OC1Init                              0x0800ab69   Thumb Code   114  stm32f4xx_tim.o(.text)
    TIM_OC2Init                              0x0800abdb   Thumb Code   154  stm32f4xx_tim.o(.text)
    TIM_OC3Init                              0x0800ac75   Thumb Code   204  stm32f4xx_tim.o(.text)
    TIM_OC4Init                              0x0800ad41   Thumb Code   112  stm32f4xx_tim.o(.text)
    TIM_OCStructInit                         0x0800adb1   Thumb Code    20  stm32f4xx_tim.o(.text)
    TIM_SelectOCxM                           0x0800adc5   Thumb Code    86  stm32f4xx_tim.o(.text)
    TIM_SetCompare1                          0x0800ae1b   Thumb Code     4  stm32f4xx_tim.o(.text)
    TIM_SetCompare2                          0x0800ae1f   Thumb Code     4  stm32f4xx_tim.o(.text)
    TIM_SetCompare3                          0x0800ae23   Thumb Code     4  stm32f4xx_tim.o(.text)
    TIM_SetCompare4                          0x0800ae27   Thumb Code     4  stm32f4xx_tim.o(.text)
    TIM_ForcedOC1Config                      0x0800ae2b   Thumb Code    18  stm32f4xx_tim.o(.text)
    TIM_ForcedOC2Config                      0x0800ae3d   Thumb Code    26  stm32f4xx_tim.o(.text)
    TIM_ForcedOC3Config                      0x0800ae57   Thumb Code    18  stm32f4xx_tim.o(.text)
    TIM_ForcedOC4Config                      0x0800ae69   Thumb Code    26  stm32f4xx_tim.o(.text)
    TIM_OC1PreloadConfig                     0x0800ae83   Thumb Code    18  stm32f4xx_tim.o(.text)
    TIM_OC2PreloadConfig                     0x0800ae95   Thumb Code    26  stm32f4xx_tim.o(.text)
    TIM_OC3PreloadConfig                     0x0800aeaf   Thumb Code    18  stm32f4xx_tim.o(.text)
    TIM_OC4PreloadConfig                     0x0800aec1   Thumb Code    26  stm32f4xx_tim.o(.text)
    TIM_OC1FastConfig                        0x0800aedb   Thumb Code    18  stm32f4xx_tim.o(.text)
    TIM_OC2FastConfig                        0x0800aeed   Thumb Code    26  stm32f4xx_tim.o(.text)
    TIM_OC3FastConfig                        0x0800af07   Thumb Code    18  stm32f4xx_tim.o(.text)
    TIM_OC4FastConfig                        0x0800af19   Thumb Code    26  stm32f4xx_tim.o(.text)
    TIM_ClearOC1Ref                          0x0800af33   Thumb Code    18  stm32f4xx_tim.o(.text)
    TIM_ClearOC2Ref                          0x0800af45   Thumb Code    24  stm32f4xx_tim.o(.text)
    TIM_ClearOC3Ref                          0x0800af5d   Thumb Code    18  stm32f4xx_tim.o(.text)
    TIM_ClearOC4Ref                          0x0800af6f   Thumb Code    24  stm32f4xx_tim.o(.text)
    TIM_OC1PolarityConfig                    0x0800af87   Thumb Code    18  stm32f4xx_tim.o(.text)
    TIM_OC1NPolarityConfig                   0x0800af99   Thumb Code    18  stm32f4xx_tim.o(.text)
    TIM_OC2PolarityConfig                    0x0800afab   Thumb Code    26  stm32f4xx_tim.o(.text)
    TIM_OC2NPolarityConfig                   0x0800afc5   Thumb Code    26  stm32f4xx_tim.o(.text)
    TIM_OC3PolarityConfig                    0x0800afdf   Thumb Code    26  stm32f4xx_tim.o(.text)
    TIM_OC3NPolarityConfig                   0x0800aff9   Thumb Code    26  stm32f4xx_tim.o(.text)
    TIM_OC4PolarityConfig                    0x0800b013   Thumb Code    26  stm32f4xx_tim.o(.text)
    TIM_CCxCmd                               0x0800b02d   Thumb Code    30  stm32f4xx_tim.o(.text)
    TIM_CCxNCmd                              0x0800b04b   Thumb Code    30  stm32f4xx_tim.o(.text)
    TIM_SetIC4Prescaler                      0x0800b069   Thumb Code    26  stm32f4xx_tim.o(.text)
    TIM_SetIC3Prescaler                      0x0800b0d3   Thumb Code    18  stm32f4xx_tim.o(.text)
    TIM_SetIC2Prescaler                      0x0800b12d   Thumb Code    26  stm32f4xx_tim.o(.text)
    TIM_SetIC1Prescaler                      0x0800b1a1   Thumb Code    18  stm32f4xx_tim.o(.text)
    TIM_ICInit                               0x0800b1ed   Thumb Code   110  stm32f4xx_tim.o(.text)
    TIM_ICStructInit                         0x0800b25b   Thumb Code    18  stm32f4xx_tim.o(.text)
    TIM_PWMIConfig                           0x0800b26d   Thumb Code   124  stm32f4xx_tim.o(.text)
    TIM_GetCapture1                          0x0800b2e9   Thumb Code     6  stm32f4xx_tim.o(.text)
    TIM_GetCapture2                          0x0800b2ef   Thumb Code     6  stm32f4xx_tim.o(.text)
    TIM_GetCapture3                          0x0800b2f5   Thumb Code     6  stm32f4xx_tim.o(.text)
    TIM_GetCapture4                          0x0800b2fb   Thumb Code     6  stm32f4xx_tim.o(.text)
    TIM_BDTRConfig                           0x0800b301   Thumb Code    32  stm32f4xx_tim.o(.text)
    TIM_BDTRStructInit                       0x0800b321   Thumb Code    18  stm32f4xx_tim.o(.text)
    TIM_CtrlPWMOutputs                       0x0800b333   Thumb Code    30  stm32f4xx_tim.o(.text)
    TIM_SelectCOM                            0x0800b351   Thumb Code    24  stm32f4xx_tim.o(.text)
    TIM_CCPreloadControl                     0x0800b369   Thumb Code    24  stm32f4xx_tim.o(.text)
    TIM_ITConfig                             0x0800b381   Thumb Code    18  stm32f4xx_tim.o(.text)
    TIM_GenerateEvent                        0x0800b393   Thumb Code     4  stm32f4xx_tim.o(.text)
    TIM_GetFlagStatus                        0x0800b397   Thumb Code    18  stm32f4xx_tim.o(.text)
    TIM_ClearFlag                            0x0800b3a9   Thumb Code     6  stm32f4xx_tim.o(.text)
    TIM_GetITStatus                          0x0800b3af   Thumb Code    34  stm32f4xx_tim.o(.text)
    TIM_ClearITPendingBit                    0x0800b3d1   Thumb Code     6  stm32f4xx_tim.o(.text)
    TIM_DMAConfig                            0x0800b3d7   Thumb Code    10  stm32f4xx_tim.o(.text)
    TIM_DMACmd                               0x0800b3e1   Thumb Code    18  stm32f4xx_tim.o(.text)
    TIM_SelectCCDMA                          0x0800b3f3   Thumb Code    24  stm32f4xx_tim.o(.text)
    TIM_InternalClockConfig                  0x0800b40b   Thumb Code    12  stm32f4xx_tim.o(.text)
    TIM_SelectInputTrigger                   0x0800b417   Thumb Code    18  stm32f4xx_tim.o(.text)
    TIM_ITRxExternalClockConfig              0x0800b429   Thumb Code    24  stm32f4xx_tim.o(.text)
    TIM_TIxExternalClockConfig               0x0800b441   Thumb Code    62  stm32f4xx_tim.o(.text)
    TIM_ETRConfig                            0x0800b47f   Thumb Code    28  stm32f4xx_tim.o(.text)
    TIM_ETRClockMode1Config                  0x0800b49b   Thumb Code    54  stm32f4xx_tim.o(.text)
    TIM_ETRClockMode2Config                  0x0800b4d1   Thumb Code    32  stm32f4xx_tim.o(.text)
    TIM_SelectOutputTrigger                  0x0800b4f1   Thumb Code    18  stm32f4xx_tim.o(.text)
    TIM_SelectSlaveMode                      0x0800b503   Thumb Code    18  stm32f4xx_tim.o(.text)
    TIM_SelectMasterSlaveMode                0x0800b515   Thumb Code    18  stm32f4xx_tim.o(.text)
    TIM_EncoderInterfaceConfig               0x0800b527   Thumb Code    66  stm32f4xx_tim.o(.text)
    TIM_SelectHallSensor                     0x0800b569   Thumb Code    24  stm32f4xx_tim.o(.text)
    TIM_RemapConfig                          0x0800b581   Thumb Code     6  stm32f4xx_tim.o(.text)
    EXTI_DeInit                              0x0800b589   Thumb Code    28  stm32f4xx_exti.o(.text)
    EXTI_Init                                0x0800b5a5   Thumb Code   142  stm32f4xx_exti.o(.text)
    EXTI_StructInit                          0x0800b633   Thumb Code    16  stm32f4xx_exti.o(.text)
    EXTI_GenerateSWInterrupt                 0x0800b643   Thumb Code    16  stm32f4xx_exti.o(.text)
    EXTI_GetFlagStatus                       0x0800b653   Thumb Code    22  stm32f4xx_exti.o(.text)
    EXTI_ClearFlag                           0x0800b669   Thumb Code     8  stm32f4xx_exti.o(.text)
    EXTI_GetITStatus                         0x0800b671   Thumb Code    22  stm32f4xx_exti.o(.text)
    EXTI_ClearITPendingBit                   0x0800b687   Thumb Code     8  stm32f4xx_exti.o(.text)
    DMA_DeInit                               0x0800b699   Thumb Code   324  stm32f4xx_dma.o(.text)
    DMA_Init                                 0x0800b7dd   Thumb Code    82  stm32f4xx_dma.o(.text)
    DMA_StructInit                           0x0800b82f   Thumb Code    34  stm32f4xx_dma.o(.text)
    DMA_Cmd                                  0x0800b851   Thumb Code    22  stm32f4xx_dma.o(.text)
    DMA_PeriphIncOffsetSizeConfig            0x0800b867   Thumb Code    22  stm32f4xx_dma.o(.text)
    DMA_FlowControllerConfig                 0x0800b87d   Thumb Code    22  stm32f4xx_dma.o(.text)
    DMA_SetCurrDataCounter                   0x0800b893   Thumb Code     4  stm32f4xx_dma.o(.text)
    DMA_GetCurrDataCounter                   0x0800b897   Thumb Code     8  stm32f4xx_dma.o(.text)
    DMA_DoubleBufferModeConfig               0x0800b89f   Thumb Code    24  stm32f4xx_dma.o(.text)
    DMA_DoubleBufferModeCmd                  0x0800b8b7   Thumb Code    22  stm32f4xx_dma.o(.text)
    DMA_MemoryTargetConfig                   0x0800b8cd   Thumb Code    10  stm32f4xx_dma.o(.text)
    DMA_GetCurrentMemoryTarget               0x0800b8d7   Thumb Code    20  stm32f4xx_dma.o(.text)
    DMA_GetCmdStatus                         0x0800b8eb   Thumb Code    20  stm32f4xx_dma.o(.text)
    DMA_GetFIFOStatus                        0x0800b8ff   Thumb Code    12  stm32f4xx_dma.o(.text)
    DMA_GetFlagStatus                        0x0800b90b   Thumb Code    56  stm32f4xx_dma.o(.text)
    DMA_ClearFlag                            0x0800b943   Thumb Code    40  stm32f4xx_dma.o(.text)
    DMA_ITConfig                             0x0800b96b   Thumb Code    58  stm32f4xx_dma.o(.text)
    DMA_GetITStatus                          0x0800b9a5   Thumb Code    84  stm32f4xx_dma.o(.text)
    DMA_ClearITPendingBit                    0x0800b9f9   Thumb Code    40  stm32f4xx_dma.o(.text)
    SPI_I2S_DeInit                           0x0800ba41   Thumb Code   152  stm32f4xx_spi.o(.text)
    SPI_Init                                 0x0800bad9   Thumb Code    60  stm32f4xx_spi.o(.text)
    I2S_Init                                 0x0800bb15   Thumb Code   396  stm32f4xx_spi.o(.text)
    SPI_StructInit                           0x0800bca1   Thumb Code    24  stm32f4xx_spi.o(.text)
    I2S_StructInit                           0x0800bcb9   Thumb Code    20  stm32f4xx_spi.o(.text)
    SPI_Cmd                                  0x0800bccd   Thumb Code    24  stm32f4xx_spi.o(.text)
    I2S_Cmd                                  0x0800bce5   Thumb Code    24  stm32f4xx_spi.o(.text)
    SPI_DataSizeConfig                       0x0800bcfd   Thumb Code    18  stm32f4xx_spi.o(.text)
    SPI_BiDirectionalLineConfig              0x0800bd0f   Thumb Code    28  stm32f4xx_spi.o(.text)
    SPI_NSSInternalSoftwareConfig            0x0800bd2b   Thumb Code    30  stm32f4xx_spi.o(.text)
    SPI_SSOutputCmd                          0x0800bd49   Thumb Code    24  stm32f4xx_spi.o(.text)
    SPI_TIModeCmd                            0x0800bd61   Thumb Code    24  stm32f4xx_spi.o(.text)
    I2S_FullDuplexConfig                     0x0800bd79   Thumb Code    80  stm32f4xx_spi.o(.text)
    SPI_I2S_ReceiveData                      0x0800bdc9   Thumb Code     6  stm32f4xx_spi.o(.text)
    SPI_I2S_SendData                         0x0800bdcf   Thumb Code     4  stm32f4xx_spi.o(.text)
    SPI_CalculateCRC                         0x0800bdd3   Thumb Code    24  stm32f4xx_spi.o(.text)
    SPI_TransmitCRC                          0x0800bdeb   Thumb Code    10  stm32f4xx_spi.o(.text)
    SPI_GetCRC                               0x0800bdf5   Thumb Code    16  stm32f4xx_spi.o(.text)
    SPI_GetCRCPolynomial                     0x0800be05   Thumb Code     6  stm32f4xx_spi.o(.text)
    SPI_I2S_DMACmd                           0x0800be0b   Thumb Code    18  stm32f4xx_spi.o(.text)
    SPI_I2S_ITConfig                         0x0800be1d   Thumb Code    68  stm32f4xx_spi.o(.text)
    SPI_I2S_GetFlagStatus                    0x0800be61   Thumb Code    18  stm32f4xx_spi.o(.text)
    SPI_I2S_ClearFlag                        0x0800be73   Thumb Code     6  stm32f4xx_spi.o(.text)
    SPI_I2S_GetITStatus                      0x0800be79   Thumb Code    52  stm32f4xx_spi.o(.text)
    SPI_I2S_ClearITPendingBit                0x0800bead   Thumb Code    20  stm32f4xx_spi.o(.text)
    mpu_reg_dump                             0x0800bf4b   Thumb Code    84  inv_mpu.o(.text)
    mpu_read_reg                             0x0800bf9f   Thumb Code    66  inv_mpu.o(.text)
    mpu_set_int_latched                      0x0800bfe1   Thumb Code   102  inv_mpu.o(.text)
    mpu_set_sensors                          0x0800c047   Thumb Code   354  inv_mpu.o(.text)
    mpu_set_compass_sample_rate              0x0800c1a9   Thumb Code    92  inv_mpu.o(.text)
    mpu_set_bypass                           0x0800c205   Thumb Code   350  inv_mpu.o(.text)
    mpu_reset_fifo                           0x0800c59d   Thumb Code   474  inv_mpu.o(.text)
    mpu_configure_fifo                       0x0800c777   Thumb Code   106  inv_mpu.o(.text)
    mpu_set_lpf                              0x0800c7e1   Thumb Code   126  inv_mpu.o(.text)
    mpu_lp_accel_mode                        0x0800c85f   Thumb Code   280  inv_mpu.o(.text)
    mpu_set_sample_rate                      0x0800c977   Thumb Code   174  inv_mpu.o(.text)
    mpu_set_accel_fsr                        0x0800ca25   Thumb Code   126  inv_mpu.o(.text)
    mpu_set_gyro_fsr                         0x0800caa3   Thumb Code   138  inv_mpu.o(.text)
    mpu_init                                 0x0800cb2d   Thumb Code   294  inv_mpu.o(.text)
    mget_ms                                  0x0800cc53   Thumb Code     2  inv_mpu.o(.text)
    mpu_get_gyro_reg                         0x0800cc55   Thumb Code   110  inv_mpu.o(.text)
    mpu_get_accel_reg                        0x0800ccc3   Thumb Code   110  inv_mpu.o(.text)
    mpu_get_temperature                      0x0800cd31   Thumb Code   142  inv_mpu.o(.text)
    mpu_read_6500_accel_bias                 0x0800cdbf   Thumb Code   124  inv_mpu.o(.text)
    mpu_read_6050_accel_bias                 0x0800ce3b   Thumb Code   124  inv_mpu.o(.text)
    mpu_read_6500_gyro_bias                  0x0800ceb7   Thumb Code   138  inv_mpu.o(.text)
    mpu_set_gyro_bias_reg                    0x0800cf41   Thumb Code   152  inv_mpu.o(.text)
    mpu_set_accel_bias_6050_reg              0x0800cfd9   Thumb Code   196  inv_mpu.o(.text)
    mpu_set_accel_bias_6500_reg              0x0800d09d   Thumb Code   196  inv_mpu.o(.text)
    mpu_get_gyro_fsr                         0x0800d161   Thumb Code    64  inv_mpu.o(.text)
    mpu_get_accel_fsr                        0x0800d1a1   Thumb Code    72  inv_mpu.o(.text)
    mpu_get_lpf                              0x0800d1e9   Thumb Code    74  inv_mpu.o(.text)
    mpu_get_sample_rate                      0x0800d233   Thumb Code    26  inv_mpu.o(.text)
    mpu_get_compass_sample_rate              0x0800d24d   Thumb Code    12  inv_mpu.o(.text)
    mpu_get_gyro_sens                        0x0800d259   Thumb Code    74  inv_mpu.o(.text)
    mpu_get_accel_sens                       0x0800d2a3   Thumb Code    98  inv_mpu.o(.text)
    mpu_get_fifo_config                      0x0800d305   Thumb Code    12  inv_mpu.o(.text)
    mpu_get_power_state                      0x0800d311   Thumb Code    22  inv_mpu.o(.text)
    mpu_get_int_status                       0x0800d327   Thumb Code    64  inv_mpu.o(.text)
    mpu_read_fifo                            0x0800d367   Thumb Code   500  inv_mpu.o(.text)
    mpu_read_fifo_stream                     0x0800d55b   Thumb Code   186  inv_mpu.o(.text)
    mpu_set_int_level                        0x0800d615   Thumb Code    12  inv_mpu.o(.text)
    mpu_set_dmp_state                        0x0800ecef   Thumb Code   138  inv_mpu.o(.text)
    mpu_run_6500_self_test                   0x0800ed79   Thumb Code   754  inv_mpu.o(.text)
    mpu_run_self_test                        0x0800f06b   Thumb Code   168  inv_mpu.o(.text)
    mpu_write_mem                            0x0800f113   Thumb Code   122  inv_mpu.o(.text)
    mpu_read_mem                             0x0800f18d   Thumb Code   122  inv_mpu.o(.text)
    mpu_load_firmware                        0x0800f207   Thumb Code   180  inv_mpu.o(.text)
    mpu_get_dmp_state                        0x0800f2bb   Thumb Code    14  inv_mpu.o(.text)
    mpu_get_compass_reg                      0x0800f2c9   Thumb Code   202  inv_mpu.o(.text)
    mpu_get_compass_fsr                      0x0800f393   Thumb Code    14  inv_mpu.o(.text)
    mpu_lp_motion_interrupt                  0x0800f3a1   Thumb Code   660  inv_mpu.o(.text)
    run_self_test                            0x0800f635   Thumb Code   156  inv_mpu.o(.text)
    inv_row_2_scale                          0x0800f6d1   Thumb Code    78  inv_mpu.o(.text)
    mpu_dmp_init                             0x0800f71f   Thumb Code   358  inv_mpu.o(.text)
    mpu_dmp_get_data                         0x0800f885   Thumb Code   520  inv_mpu.o(.text)
    mpu_mpl_get_data                         0x0800fa8d   Thumb Code   234  inv_mpu.o(.text)
    dmp_load_motion_driver_firmware          0x0800fb95   Thumb Code    20  inv_mpu_dmp_motion_driver.o(.text)
    dmp_set_orientation                      0x0800fba9   Thumb Code   290  inv_mpu_dmp_motion_driver.o(.text)
    dmp_set_gyro_bias                        0x0800fccb   Thumb Code   294  inv_mpu_dmp_motion_driver.o(.text)
    dmp_set_accel_bias                       0x0800fdf1   Thumb Code   300  inv_mpu_dmp_motion_driver.o(.text)
    dmp_set_fifo_rate                        0x0800ff1d   Thumb Code   136  inv_mpu_dmp_motion_driver.o(.text)
    dmp_get_fifo_rate                        0x0800ffa5   Thumb Code    12  inv_mpu_dmp_motion_driver.o(.text)
    dmp_set_tap_thresh                       0x0800ffb1   Thumb Code   412  inv_mpu_dmp_motion_driver.o(.text)
    dmp_set_tap_axes                         0x0801014d   Thumb Code    70  inv_mpu_dmp_motion_driver.o(.text)
    dmp_set_tap_count                        0x08010193   Thumb Code    38  inv_mpu_dmp_motion_driver.o(.text)
    dmp_set_tap_time                         0x080101b9   Thumb Code    38  inv_mpu_dmp_motion_driver.o(.text)
    dmp_set_tap_time_multi                   0x080101df   Thumb Code    38  inv_mpu_dmp_motion_driver.o(.text)
    dmp_set_shake_reject_thresh              0x08010205   Thumb Code    56  inv_mpu_dmp_motion_driver.o(.text)
    dmp_set_shake_reject_time                0x0801023d   Thumb Code    38  inv_mpu_dmp_motion_driver.o(.text)
    dmp_set_shake_reject_timeout             0x08010263   Thumb Code    38  inv_mpu_dmp_motion_driver.o(.text)
    dmp_get_pedometer_step_count             0x08010289   Thumb Code    66  inv_mpu_dmp_motion_driver.o(.text)
    dmp_set_pedometer_step_count             0x080102cb   Thumb Code    42  inv_mpu_dmp_motion_driver.o(.text)
    dmp_get_pedometer_walk_time              0x080102f5   Thumb Code    72  inv_mpu_dmp_motion_driver.o(.text)
    dmp_set_pedometer_walk_time              0x0801033d   Thumb Code    48  inv_mpu_dmp_motion_driver.o(.text)
    dmp_enable_6x_lp_quat                    0x0801036d   Thumb Code   100  inv_mpu_dmp_motion_driver.o(.text)
    dmp_enable_lp_quat                       0x080103d1   Thumb Code    60  inv_mpu_dmp_motion_driver.o(.text)
    dmp_enable_gyro_cal                      0x0801040d   Thumb Code    62  inv_mpu_dmp_motion_driver.o(.text)
    dmp_enable_feature                       0x0801044b   Thumb Code   530  inv_mpu_dmp_motion_driver.o(.text)
    dmp_get_enabled_features                 0x0801065d   Thumb Code    12  inv_mpu_dmp_motion_driver.o(.text)
    dmp_set_interrupt_mode                   0x080106c7   Thumb Code    66  inv_mpu_dmp_motion_driver.o(.text)
    dmp_read_fifo                            0x08010709   Thumb Code   514  inv_mpu_dmp_motion_driver.o(.text)
    dmp_register_tap_cb                      0x0801090b   Thumb Code    10  inv_mpu_dmp_motion_driver.o(.text)
    dmp_register_android_orient_cb           0x08010915   Thumb Code    10  inv_mpu_dmp_motion_driver.o(.text)
    _MLPrintLog                              0x08010925   Thumb Code   202  log_stm32.o(.text)
    eMPL_send_quat                           0x080109ef   Thumb Code   188  log_stm32.o(.text)
    eMPL_send_data                           0x08010aab   Thumb Code   406  log_stm32.o(.text)
    inv_get_sensor_type_accel                0x08010c41   Thumb Code    36  empl_outputs.o(.text)
    inv_get_sensor_type_gyro                 0x08010c65   Thumb Code    36  empl_outputs.o(.text)
    inv_get_sensor_type_compass              0x08010c89   Thumb Code    36  empl_outputs.o(.text)
    inv_get_sensor_type_quat                 0x08010cad   Thumb Code    32  empl_outputs.o(.text)
    inv_get_sensor_type_heading              0x08010ccd   Thumb Code   178  empl_outputs.o(.text)
    inv_get_sensor_type_euler                0x08010d7f   Thumb Code   588  empl_outputs.o(.text)
    inv_get_sensor_type_rot_mat              0x08010fcb   Thumb Code    36  empl_outputs.o(.text)
    inv_enable_eMPL_outputs                  0x0801111b   Thumb Code    22  empl_outputs.o(.text)
    inv_disable_eMPL_outputs                 0x08011131   Thumb Code    14  empl_outputs.o(.text)
    inv_disable_compass_soft_iron_matrix     0x080111a5   Thumb Code    10  data_builder.o(.text)
    inv_reset_compass_soft_iron_matrix       0x080111af   Thumb Code    80  data_builder.o(.text)
    inv_init_data_builder                    0x080111ff   Thumb Code    44  data_builder.o(.text)
    inv_get_gyro_sensitivity                 0x0801122b   Thumb Code     6  data_builder.o(.text)
    inv_get_accel_sensitivity                0x08011231   Thumb Code     6  data_builder.o(.text)
    inv_get_compass_sensitivity              0x08011237   Thumb Code     8  data_builder.o(.text)
    set_sensor_orientation_and_scale         0x0801123f   Thumb Code     6  data_builder.o(.text)
    inv_set_gyro_orientation_and_scale       0x08011245   Thumb Code    18  data_builder.o(.text)
    inv_set_gyro_sample_rate                 0x08011257   Thumb Code    32  data_builder.o(.text)
    inv_set_accel_sample_rate                0x08011277   Thumb Code    36  data_builder.o(.text)
    inv_set_compass_sample_rate              0x0801129b   Thumb Code    40  data_builder.o(.text)
    inv_get_gyro_sample_rate_ms              0x080112c3   Thumb Code     8  data_builder.o(.text)
    inv_get_accel_sample_rate_ms             0x080112cb   Thumb Code     8  data_builder.o(.text)
    inv_get_compass_sample_rate_ms           0x080112d3   Thumb Code    10  data_builder.o(.text)
    inv_set_quat_sample_rate                 0x080112dd   Thumb Code    22  data_builder.o(.text)
    inv_set_gyro_bandwidth                   0x080112f3   Thumb Code     6  data_builder.o(.text)
    inv_set_accel_bandwidth                  0x080112f9   Thumb Code     8  data_builder.o(.text)
    inv_set_compass_bandwidth                0x08011301   Thumb Code     8  data_builder.o(.text)
    inv_get_compass_on                       0x08011309   Thumb Code    12  data_builder.o(.text)
    inv_get_gyro_on                          0x08011315   Thumb Code    10  data_builder.o(.text)
    inv_get_accel_on                         0x0801131f   Thumb Code    12  data_builder.o(.text)
    inv_get_last_timestamp                   0x0801132b   Thumb Code    98  data_builder.o(.text)
    inv_set_accel_orientation_and_scale      0x0801138d   Thumb Code    20  data_builder.o(.text)
    inv_set_compass_orientation_and_scale    0x080113a1   Thumb Code    20  data_builder.o(.text)
    inv_matrix_vector_mult                   0x080113b5   Thumb Code   110  data_builder.o(.text)
    inv_apply_calibration                    0x08011423   Thumb Code   106  data_builder.o(.text)
    inv_get_compass_bias                     0x0801148d   Thumb Code    20  data_builder.o(.text)
    inv_set_compass_bias                     0x080114a1   Thumb Code    66  data_builder.o(.text)
    inv_set_compass_disturbance              0x080114e3   Thumb Code    10  data_builder.o(.text)
    inv_get_compass_disturbance              0x080114ed   Thumb Code    10  data_builder.o(.text)
    inv_set_accel_bias                       0x080114f7   Thumb Code    98  data_builder.o(.text)
    inv_set_accel_accuracy                   0x08011559   Thumb Code    26  data_builder.o(.text)
    inv_set_accel_bias_mask                  0x08011573   Thumb Code    84  data_builder.o(.text)
    inv_set_gyro_bias                        0x080115c7   Thumb Code   106  data_builder.o(.text)
    inv_get_gyro_bias_tc_set                 0x08011631   Thumb Code    26  data_builder.o(.text)
    inv_get_gyro_bias                        0x0801164b   Thumb Code    32  data_builder.o(.text)
    inv_get_accel_bias                       0x0801166b   Thumb Code    32  data_builder.o(.text)
    inv_build_accel                          0x0801168b   Thumb Code   128  data_builder.o(.text)
    inv_build_gyro                           0x0801170b   Thumb Code    48  data_builder.o(.text)
    inv_get_compass_soft_iron_output_data    0x0801173b   Thumb Code    24  data_builder.o(.text)
    inv_set_compass_soft_iron_input_data     0x08011753   Thumb Code    72  data_builder.o(.text)
    inv_build_compass                        0x0801179b   Thumb Code   168  data_builder.o(.text)
    inv_build_temp                           0x08011843   Thumb Code    38  data_builder.o(.text)
    inv_build_quat                           0x08011869   Thumb Code    56  data_builder.o(.text)
    inv_accel_was_turned_off                 0x080118a1   Thumb Code     8  data_builder.o(.text)
    inv_compass_was_turned_off               0x080118a9   Thumb Code    10  data_builder.o(.text)
    inv_quaternion_sensor_was_turned_off     0x080118b3   Thumb Code    10  data_builder.o(.text)
    inv_gyro_was_turned_off                  0x080118bd   Thumb Code     8  data_builder.o(.text)
    inv_temperature_was_turned_off           0x080118c5   Thumb Code    10  data_builder.o(.text)
    inv_register_data_cb                     0x080118cf   Thumb Code   246  data_builder.o(.text)
    inv_unregister_data_cb                   0x080119c5   Thumb Code    96  data_builder.o(.text)
    inv_execute_on_data                      0x08011b3f   Thumb Code   152  data_builder.o(.text)
    inv_get_accel_set                        0x08011bd7   Thumb Code    40  data_builder.o(.text)
    inv_get_gyro_set                         0x08011bff   Thumb Code    34  data_builder.o(.text)
    inv_get_gyro_set_raw                     0x08011c21   Thumb Code    34  data_builder.o(.text)
    inv_get_gyro                             0x08011c43   Thumb Code    12  data_builder.o(.text)
    inv_get_compass_set                      0x08011c4f   Thumb Code    58  data_builder.o(.text)
    inv_get_temp_set                         0x08011c89   Thumb Code    30  data_builder.o(.text)
    inv_get_gyro_accuracy                    0x08011ca7   Thumb Code     6  data_builder.o(.text)
    inv_get_mag_accuracy                     0x08011cad   Thumb Code    22  data_builder.o(.text)
    inv_get_accel_accuracy                   0x08011cc3   Thumb Code     6  data_builder.o(.text)
    inv_get_gyro_orient                      0x08011cc9   Thumb Code    12  data_builder.o(.text)
    inv_get_accel_orient                     0x08011cd5   Thumb Code    12  data_builder.o(.text)
    inv_get_compass_soft_iron_matrix_d       0x08011ce1   Thumb Code    24  data_builder.o(.text)
    inv_set_compass_soft_iron_matrix_d       0x08011cf9   Thumb Code    56  data_builder.o(.text)
    inv_get_compass_soft_iron_matrix_f       0x08011d31   Thumb Code    60  data_builder.o(.text)
    inv_set_compass_soft_iron_matrix_f       0x08011d6d   Thumb Code    64  data_builder.o(.text)
    inv_get_compass_soft_iron_input_data     0x08011dad   Thumb Code    26  data_builder.o(.text)
    inv_enable_compass_soft_iron_matrix      0x08011dc7   Thumb Code    10  data_builder.o(.text)
    inv_get_sensor_type_accelerometer        0x08011dd9   Thumb Code   100  hal_outputs.o(.text)
    inv_get_sensor_type_linear_acceleration  0x08011e3d   Thumb Code   122  hal_outputs.o(.text)
    inv_get_sensor_type_gravity              0x08011eb7   Thumb Code   104  hal_outputs.o(.text)
    inv_get_sensor_type_gyroscope            0x08011f1f   Thumb Code   100  hal_outputs.o(.text)
    inv_get_sensor_type_gyroscope_raw        0x08011f83   Thumb Code   100  hal_outputs.o(.text)
    inv_get_sensor_type_rotation_vector      0x08011fe7   Thumb Code   232  hal_outputs.o(.text)
    inv_get_sensor_type_magnetic_field       0x080120cf   Thumb Code    76  hal_outputs.o(.text)
    inv_get_sensor_type_orientation          0x08012273   Thumb Code    34  hal_outputs.o(.text)
    inv_generate_hal_outputs                 0x08012295   Thumb Code   498  hal_outputs.o(.text)
    inv_stop_hal_outputs                     0x08012487   Thumb Code    16  hal_outputs.o(.text)
    inv_start_hal_outputs                    0x08012497   Thumb Code    22  hal_outputs.o(.text)
    inv_init_hal_outputs                     0x080124ad   Thumb Code    46  hal_outputs.o(.text)
    inv_enable_hal_outputs                   0x080124db   Thumb Code    20  hal_outputs.o(.text)
    inv_disable_hal_outputs                  0x080124ef   Thumb Code    20  hal_outputs.o(.text)
    inv_set_message                          0x08012519   Thumb Code    24  message_layer.o(.text)
    inv_get_message_level_0                  0x08012531   Thumb Code    16  message_layer.o(.text)
    inv_sinf                                 0x08012545   Thumb Code    42  ml_math_func.o(.text)
    inv_cosf                                 0x0801256f   Thumb Code    44  ml_math_func.o(.text)
    inv_q30_mult                             0x0801259b   Thumb Code    18  ml_math_func.o(.text)
    inv_q_mult                               0x080125ad   Thumb Code   178  ml_math_func.o(.text)
    inv_q_invert                             0x0801265f   Thumb Code    24  ml_math_func.o(.text)
    inv_compass_angle                        0x08012677   Thumb Code   170  ml_math_func.o(.text)
    inv_get_gyro_sum_of_sqr                  0x08012721   Thumb Code    28  ml_math_func.o(.text)
    inv_q29_mult                             0x0801273d   Thumb Code    18  ml_math_func.o(.text)
    inv_q30_div                              0x0801274f   Thumb Code    40  ml_math_func.o(.text)
    inv_q_shift_mult                         0x08012777   Thumb Code    32  ml_math_func.o(.text)
    inv_q_add                                0x08012797   Thumb Code    36  ml_math_func.o(.text)
    inv_vector_normalize                     0x080127bb   Thumb Code   222  ml_math_func.o(.text)
    inv_q_normalize                          0x08012899   Thumb Code    14  ml_math_func.o(.text)
    quaternion_to_rotation_angle             0x080128a7   Thumb Code   248  ml_math_func.o(.text)
    inv_q_rotate                             0x0801299f   Thumb Code    66  ml_math_func.o(.text)
    inv_q_multf                              0x080129e1   Thumb Code   210  ml_math_func.o(.text)
    inv_q_addf                               0x08012ab3   Thumb Code    66  ml_math_func.o(.text)
    inv_q_normalizef                         0x08012af5   Thumb Code   302  ml_math_func.o(.text)
    inv_q_norm4                              0x08012c23   Thumb Code   162  ml_math_func.o(.text)
    inv_q_invertf                            0x08012cc5   Thumb Code    46  ml_math_func.o(.text)
    inv_quaternion_to_rotation               0x08012cf3   Thumb Code   218  ml_math_func.o(.text)
    inv_quaternion_to_rotation_vector        0x08012dcd   Thumb Code    70  ml_math_func.o(.text)
    inv_int32_to_big8                        0x08012e13   Thumb Code    20  ml_math_func.o(.text)
    inv_big8_to_int32                        0x08012e27   Thumb Code    26  ml_math_func.o(.text)
    inv_big8_to_int16                        0x08012e41   Thumb Code    14  ml_math_func.o(.text)
    inv_little8_to_int16                     0x08012e4f   Thumb Code    14  ml_math_func.o(.text)
    inv_int16_to_big8                        0x08012e5d   Thumb Code    12  ml_math_func.o(.text)
    inv_matrix_det_inc                       0x08012e69   Thumb Code   108  ml_math_func.o(.text)
    inv_matrix_det_incd                      0x08012ed5   Thumb Code   108  ml_math_func.o(.text)
    inv_matrix_det                           0x08012f41   Thumb Code   166  ml_math_func.o(.text)
    inv_matrix_detd                          0x08012fe7   Thumb Code   276  ml_math_func.o(.text)
    inv_wrap_angle                           0x080130fb   Thumb Code    80  ml_math_func.o(.text)
    inv_angle_diff                           0x0801314b   Thumb Code   122  ml_math_func.o(.text)
    inv_checksum                             0x080131c5   Thumb Code    60  ml_math_func.o(.text)
    inv_orientation_matrix_to_scalar         0x0801324f   Thumb Code    40  ml_math_func.o(.text)
    inv_convert_to_body                      0x08013277   Thumb Code    82  ml_math_func.o(.text)
    inv_convert_to_chip                      0x080132c9   Thumb Code    82  ml_math_func.o(.text)
    inv_convert_to_body_with_scale           0x0801331b   Thumb Code   114  ml_math_func.o(.text)
    inv_vector_norm                          0x0801338d   Thumb Code    72  ml_math_func.o(.text)
    inv_init_biquad_filter                   0x080133d5   Thumb Code    50  ml_math_func.o(.text)
    inv_calc_state_to_match_output           0x08013407   Thumb Code    46  ml_math_func.o(.text)
    inv_biquad_filter_process                0x08013435   Thumb Code   106  ml_math_func.o(.text)
    inv_get_cross_product_vec                0x0801349f   Thumb Code    86  ml_math_func.o(.text)
    mlMatrixVectorMult                       0x080134f5   Thumb Code    62  ml_math_func.o(.text)
    inv_init_mpl                             0x08013595   Thumb Code   106  mpl.o(.text)
    inv_get_version                          0x080135ff   Thumb Code    10  mpl.o(.text)
    inv_start_mpl                            0x08013609   Thumb Code    38  mpl.o(.text)
    inv_store_gaming_quaternion              0x08013669   Thumb Code    30  results_holder.o(.text)
    inv_set_compass_correction               0x08013687   Thumb Code    30  results_holder.o(.text)
    inv_get_compass_correction               0x080136a5   Thumb Code    20  results_holder.o(.text)
    inv_get_large_mag_field                  0x080136b9   Thumb Code     6  results_holder.o(.text)
    inv_set_large_mag_field                  0x080136bf   Thumb Code     6  results_holder.o(.text)
    inv_get_acc_state                        0x080136c5   Thumb Code     6  results_holder.o(.text)
    inv_set_acc_state                        0x080136cb   Thumb Code     6  results_holder.o(.text)
    inv_get_motion_state                     0x080136d1   Thumb Code    16  results_holder.o(.text)
    inv_set_motion_state                     0x080136e1   Thumb Code    74  results_holder.o(.text)
    inv_set_local_field                      0x0801372b   Thumb Code    14  results_holder.o(.text)
    inv_get_local_field                      0x08013739   Thumb Code    12  results_holder.o(.text)
    inv_set_mag_scale                        0x08013745   Thumb Code    14  results_holder.o(.text)
    inv_get_mag_scale                        0x08013753   Thumb Code    12  results_holder.o(.text)
    inv_get_gravity                          0x0801375f   Thumb Code    90  results_holder.o(.text)
    inv_get_6axis_quaternion                 0x080137b9   Thumb Code    18  results_holder.o(.text)
    inv_get_quaternion                       0x080137cb   Thumb Code    54  results_holder.o(.text)
    inv_get_quaternion_float                 0x08013801   Thumb Code    58  results_holder.o(.text)
    inv_get_quaternion_set                   0x0801383b   Thumb Code    68  results_holder.o(.text)
    inv_generate_results                     0x0801387f   Thumb Code    12  results_holder.o(.text)
    inv_start_results_holder                 0x0801388b   Thumb Code    20  results_holder.o(.text)
    inv_init_results_holder                  0x0801389f   Thumb Code    50  results_holder.o(.text)
    inv_enable_results_holder                0x080138d1   Thumb Code    28  results_holder.o(.text)
    inv_got_accel_bias                       0x080138ed   Thumb Code     6  results_holder.o(.text)
    inv_set_accel_bias_found                 0x080138f3   Thumb Code     6  results_holder.o(.text)
    inv_got_compass_bias                     0x080138f9   Thumb Code     6  results_holder.o(.text)
    inv_set_compass_bias_found               0x080138ff   Thumb Code     6  results_holder.o(.text)
    inv_set_compass_state                    0x08013905   Thumb Code     6  results_holder.o(.text)
    inv_get_compass_state                    0x0801390b   Thumb Code     6  results_holder.o(.text)
    inv_set_compass_bias_error               0x08013911   Thumb Code    14  results_holder.o(.text)
    inv_get_compass_bias_error               0x0801391f   Thumb Code    12  results_holder.o(.text)
    inv_get_linear_accel                     0x0801392b   Thumb Code    60  results_holder.o(.text)
    inv_get_accel                            0x08013967   Thumb Code    24  results_holder.o(.text)
    inv_get_accel_float                      0x0801397f   Thumb Code    62  results_holder.o(.text)
    inv_get_gyro_float                       0x080139bd   Thumb Code    64  results_holder.o(.text)
    inv_set_heading_confidence_interval      0x080139fd   Thumb Code     8  results_holder.o(.text)
    inv_get_heading_confidence_interval      0x08013a05   Thumb Code     8  results_holder.o(.text)
    inv_get_linear_accel_float               0x08013a0d   Thumb Code    76  results_holder.o(.text)
    inv_init_start_manager                   0x08013a71   Thumb Code    14  start_manager.o(.text)
    inv_unregister_mpl_start_notification    0x08013a7f   Thumb Code    86  start_manager.o(.text)
    inv_register_mpl_start_notification      0x08013ad5   Thumb Code    38  start_manager.o(.text)
    inv_execute_mpl_start_notification       0x08013afb   Thumb Code    40  start_manager.o(.text)
    inv_init_storage_manager                 0x08013b29   Thumb Code    20  storage_manager.o(.text)
    inv_register_load_store                  0x08013b3d   Thumb Code   134  storage_manager.o(.text)
    inv_get_mpl_state_size                   0x08013bc3   Thumb Code    12  storage_manager.o(.text)
    inv_load_mpl_states                      0x08013bfb   Thumb Code   174  storage_manager.o(.text)
    inv_save_mpl_states                      0x08013ca9   Thumb Code   158  storage_manager.o(.text)
    inv_vector_compass_cal_sensitivity       0x08013d4d   Thumb Code     8  compass_vec_cal.o(.text)
    inv_cheap_rand                           0x08013f2f   Thumb Code    42  compass_vec_cal.o(.text)
    inv_cheap_gaussian                       0x08013f59   Thumb Code   100  compass_vec_cal.o(.text)
    inv_combine_compass_data                 0x08013fbd   Thumb Code   294  compass_vec_cal.o(.text)
    inv_set_terms                            0x080140e3   Thumb Code   754  compass_vec_cal.o(.text)
    inv_compute_bias                         0x080143d5   Thumb Code  1668  compass_vec_cal.o(.text)
    inv_center_sum                           0x08014a59   Thumb Code  1418  compass_vec_cal.o(.text)
    inv_get_current_calibrated_compass       0x08014fe3   Thumb Code    82  compass_vec_cal.o(.text)
    inv_add_compass_block_data               0x08015035   Thumb Code   142  compass_vec_cal.o(.text)
    inv_check_sim                            0x080152f3   Thumb Code   278  compass_vec_cal.o(.text)
    inv_reset_data_collection                0x08015409   Thumb Code    50  compass_vec_cal.o(.text)
    inv_process_compass_only_cal             0x0801543b   Thumb Code  1474  compass_vec_cal.o(.text)
    inv_generate_vector_compass_cal          0x080159fd   Thumb Code    62  compass_vec_cal.o(.text)
    inv_start_vector_compass_cal             0x08015a3b   Thumb Code    14  compass_vec_cal.o(.text)
    inv_stop_vector_compass_cal              0x08015a49   Thumb Code     8  compass_vec_cal.o(.text)
    inv_init_vector_compass_cal              0x08015a51   Thumb Code    78  compass_vec_cal.o(.text)
    inv_enable_vector_compass_cal            0x08015a9f   Thumb Code    24  compass_vec_cal.o(.text)
    inv_disable_vector_compass_cal           0x08015ab7   Thumb Code    22  compass_vec_cal.o(.text)
    inv_init_maxmin                          0x08015ba9   Thumb Code    78  fast_no_motion.o(.text)
    inv_fast_nomot_parameter                 0x08015bf7   Thumb Code   318  fast_no_motion.o(.text)
    inv_fast_nomot_parameter_3rd             0x08015d35   Thumb Code   180  fast_no_motion.o(.text)
    inv_fast_nomot_set_gyro_bias             0x08015de9   Thumb Code   232  fast_no_motion.o(.text)
    inv_set_fast_nomot_compass_threshold     0x08015ed1   Thumb Code     8  fast_no_motion.o(.text)
    int_set_fast_nomot_gyro_threshold        0x08015ed9   Thumb Code     8  fast_no_motion.o(.text)
    inv_set_fast_nomot_accel_threshold       0x08015ee1   Thumb Code     8  fast_no_motion.o(.text)
    inv_get_fast_nomot_compass_param         0x08015ee9   Thumb Code    18  fast_no_motion.o(.text)
    inv_get_fast_nomot_accel_param           0x08015efb   Thumb Code    18  fast_no_motion.o(.text)
    inv_fast_nomot_store_data                0x08015f0d   Thumb Code   140  fast_no_motion.o(.text)
    inv_fast_nomot_store_data_compass        0x08015f99   Thumb Code    74  fast_no_motion.o(.text)
    inv_fast_nomot_reset_data_compass        0x08015fe3   Thumb Code    36  fast_no_motion.o(.text)
    inv_fast_nomot_get_time_elaps            0x08016007   Thumb Code     8  fast_no_motion.o(.text)
    inv_fast_nomot_parameter_compass         0x0801600f   Thumb Code    22  fast_no_motion.o(.text)
    inv_get_right_shift_by_rounding          0x08016025   Thumb Code    76  fast_no_motion.o(.text)
    inv_reset_min_max_gyro_accel_statistics  0x08016071   Thumb Code    38  fast_no_motion.o(.text)
    inv_record_max_moment_in_no_motion_gyro  0x08016097   Thumb Code    32  fast_no_motion.o(.text)
    inv_record_max_moment_in_no_motion_accel 0x080160b7   Thumb Code    32  fast_no_motion.o(.text)
    inv_record_min_moment_in_motion_gyro     0x080160d7   Thumb Code    34  fast_no_motion.o(.text)
    inv_record_min_moment_in_motion_accel    0x080160f9   Thumb Code    34  fast_no_motion.o(.text)
    inv_detect_motion_by_gyro_accel          0x0801611b   Thumb Code   214  fast_no_motion.o(.text)
    inv_sensor_data_preprocess               0x080161f1   Thumb Code   132  fast_no_motion.o(.text)
    inv_generate_fast_nomot                  0x08016275   Thumb Code   498  fast_no_motion.o(.text)
    inv_set_default_number_of_samples        0x08016467   Thumb Code    56  fast_no_motion.o(.text)
    inv_init_fast_nomot                      0x0801649f   Thumb Code    78  fast_no_motion.o(.text)
    inv_start_fast_nomot                     0x080164ed   Thumb Code    56  fast_no_motion.o(.text)
    inv_stop_fast_nomot                      0x08016525   Thumb Code    20  fast_no_motion.o(.text)
    inv_enable_fast_nomot                    0x08016539   Thumb Code    24  fast_no_motion.o(.text)
    inv_disable_fast_nomot                   0x08016551   Thumb Code    18  fast_no_motion.o(.text)
    inv_get_fnm_gyro_no_motion_param         0x08016563   Thumb Code     8  fast_no_motion.o(.text)
    inv_fnm_debug_print                      0x0801656b   Thumb Code     2  fast_no_motion.o(.text)
    inv_filter_correction_angle              0x0801659d   Thumb Code   364  fusion_9axis.o(.text)
    inv_perform_9x_fusion                    0x08016709   Thumb Code   840  fusion_9axis.o(.text)
    inv_process_9x_sensor_fusion_cb          0x08016a51   Thumb Code   120  fusion_9axis.o(.text)
    inv_init_9x_fusion                       0x08016ac9   Thumb Code    50  fusion_9axis.o(.text)
    inv_9x_fusion_set_mag_fb                 0x08016afb   Thumb Code    10  fusion_9axis.o(.text)
    inv_9x_fusion_enable_jitter_reduction    0x08016b05   Thumb Code    10  fusion_9axis.o(.text)
    inv_9x_fusion_use_timestamps             0x08016b0f   Thumb Code    10  fusion_9axis.o(.text)
    inv_start_9x_sensor_fusion               0x08016b19   Thumb Code    14  fusion_9axis.o(.text)
    inv_stop_9x_sensor_fusion                0x08016b27   Thumb Code     8  fusion_9axis.o(.text)
    inv_enable_9x_sensor_fusion              0x08016b2f   Thumb Code    30  fusion_9axis.o(.text)
    inv_disable_9x_sensor_fusion             0x08016b4d   Thumb Code     8  fusion_9axis.o(.text)
    inv_init_gyro_ts                         0x08016f73   Thumb Code    46  gyro_tc.o(.text)
    inv_set_gtc_max_temp                     0x08016fa1   Thumb Code    10  gyro_tc.o(.text)
    inv_set_gtc_min_temp                     0x08016fab   Thumb Code    10  gyro_tc.o(.text)
    inv_set_gtc_min_diff                     0x08016fb5   Thumb Code    10  gyro_tc.o(.text)
    inv_get_gyro_ts                          0x08016fbf   Thumb Code    30  gyro_tc.o(.text)
    inv_set_gyro_ts                          0x08016fdd   Thumb Code    16  gyro_tc.o(.text)
    inv_set_gtc_order                        0x08016fed   Thumb Code    16  gyro_tc.o(.text)
    inv_print_gtc_data                       0x08016ffd   Thumb Code    62  gyro_tc.o(.text)
    inv_start_gyro_tc                        0x0801703b   Thumb Code    10  gyro_tc.o(.text)
    inv_stop_gyro_tc                         0x08017045   Thumb Code     6  gyro_tc.o(.text)
    inv_enable_gyro_tc                       0x0801704b   Thumb Code    48  gyro_tc.o(.text)
    inv_disable_gyro_tc                      0x0801707b   Thumb Code    40  gyro_tc.o(.text)
    inv_set_magnetic_disturbance             0x080170b5   Thumb Code    16  mag_disturb.o(.text)
    inv_init_magnetic_disturbance            0x080170c5   Thumb Code    50  mag_disturb.o(.text)
    MagDisturbSetDisturbance                 0x080170f7   Thumb Code    98  mag_disturb.o(.text)
    MagDisturbCheckSettling                  0x08017159   Thumb Code    54  mag_disturb.o(.text)
    ComputeAngleVelocity                     0x0801718f   Thumb Code    94  mag_disturb.o(.text)
    inv_disable_dip_tracking                 0x080171ed   Thumb Code    10  mag_disturb.o(.text)
    Mag3ofNormalizedLong                     0x080171f7   Thumb Code    72  mag_disturb.o(.text)
    inv_track_dip_angle                      0x0801723f   Thumb Code   114  mag_disturb.o(.text)
    inv_check_magnetic_disturbance           0x080172b1   Thumb Code   690  mag_disturb.o(.text)
    inv_magnetic_disturbance_process         0x08017563   Thumb Code    50  mag_disturb.o(.text)
    inv_start_magnetic_disturbance           0x08017595   Thumb Code    14  mag_disturb.o(.text)
    inv_stop_magnetic_disturbance            0x080175a3   Thumb Code     8  mag_disturb.o(.text)
    inv_enable_magnetic_disturbance          0x080175ab   Thumb Code    40  mag_disturb.o(.text)
    inv_disable_magnetic_disturbance         0x080175d3   Thumb Code    22  mag_disturb.o(.text)
    inv_enable_dip_tracking                  0x080175e9   Thumb Code    14  mag_disturb.o(.text)
    inv_get_magnetic_disturbance_state       0x080175f7   Thumb Code     8  mag_disturb.o(.text)
    inv_generate_gyro_quaternion             0x08017995   Thumb Code   260  quaternion_supervisor.o(.text)
    inv_set_quaternion                       0x08017c87   Thumb Code    38  quaternion_supervisor.o(.text)
    inv_generate_accel_gyro_quaternion       0x08017cad   Thumb Code   428  quaternion_supervisor.o(.text)
    inv_stop_quaternion                      0x08017ea1   Thumb Code     6  quaternion_supervisor.o(.text)
    inv_init_quaternion                      0x08017ea7   Thumb Code    34  quaternion_supervisor.o(.text)
    inv_start_quaternion                     0x08017ec9   Thumb Code    34  quaternion_supervisor.o(.text)
    inv_enable_quaternion                    0x08017eeb   Thumb Code    24  quaternion_supervisor.o(.text)
    inv_disable_quaternion                   0x08017f03   Thumb Code    20  quaternion_supervisor.o(.text)
    inv_init_accel_maxmin                    0x08017f45   Thumb Code    28  accel_auto_cal.o(.text)
    inv_record_good_accel_maxmin             0x08017f61   Thumb Code    56  accel_auto_cal.o(.text)
    inv_get_current_calibrated_accel         0x08017f99   Thumb Code    70  accel_auto_cal.o(.text)
    inv_sort_order_4_T                       0x080182e7   Thumb Code   186  accel_auto_cal.o(.text)
    inv_init_check_sample_balance            0x080183a1   Thumb Code    30  accel_auto_cal.o(.text)
    inv_init_check_sample_balance_parameter  0x080183bf   Thumb Code    28  accel_auto_cal.o(.text)
    inv_add_accel_block_data                 0x080183db   Thumb Code   152  accel_auto_cal.o(.text)
    inv_add_vector_block_data                0x08018473   Thumb Code   120  accel_auto_cal.o(.text)
    inv_check_sample_balance                 0x080184eb   Thumb Code   344  accel_auto_cal.o(.text)
    inv_auto_calibrate                       0x08018679   Thumb Code   720  accel_auto_cal.o(.text)
    inv_init_in_use_auto_calibration         0x08018949   Thumb Code    80  accel_auto_cal.o(.text)
    inv_start_in_use_auto_calibration        0x08018999   Thumb Code    14  accel_auto_cal.o(.text)
    inv_stop_in_use_auto_calibration         0x080189a7   Thumb Code     8  accel_auto_cal.o(.text)
    inv_enable_in_use_auto_calibration       0x080189af   Thumb Code    24  accel_auto_cal.o(.text)
    inv_disable_in_use_auto_calibration      0x080189c7   Thumb Code    94  accel_auto_cal.o(.text)
    inv_get_accel_bias_stage                 0x08018a25   Thumb Code     6  accel_auto_cal.o(.text)
    __aeabi_ldivmod                          0x08018a31   Thumb Code    98  ldiv.o(.text)
    __aeabi_llsl                             0x08018a93   Thumb Code    30  llshl.o(.text)
    _ll_shift_l                              0x08018a93   Thumb Code     0  llshl.o(.text)
    __aeabi_lasr                             0x08018ab1   Thumb Code    36  llsshr.o(.text)
    _ll_sshift_r                             0x08018ab1   Thumb Code     0  llsshr.o(.text)
    ___aeabi_memcpy8$move                    0x08018ad5   Thumb Code     0  memmovea.o(.text)
    __aeabi_memcpy                           0x08018ad5   Thumb Code    64  memmovea.o(.text)
    __aeabi_memcpy4                          0x08018ad5   Thumb Code     0  memmovea.o(.text)
    __aeabi_memmove                          0x08018ad5   Thumb Code     0  memmovea.o(.text)
    __aeabi_memmove4                         0x08018ad5   Thumb Code     0  memmovea.o(.text)
    __aeabi_memmove8                         0x08018ad5   Thumb Code     0  memmovea.o(.text)
    __aeabi_memset                           0x08018b15   Thumb Code    14  memseta.o(.text)
    __aeabi_memset4                          0x08018b15   Thumb Code     0  memseta.o(.text)
    __aeabi_memset8                          0x08018b15   Thumb Code     0  memseta.o(.text)
    __aeabi_memclr                           0x08018b23   Thumb Code     4  memseta.o(.text)
    __aeabi_memclr4                          0x08018b23   Thumb Code     0  memseta.o(.text)
    __aeabi_memclr8                          0x08018b23   Thumb Code     0  memseta.o(.text)
    _memset$wrapper                          0x08018b27   Thumb Code    18  memseta.o(.text)
    memcmp                                   0x08018b39   Thumb Code    26  memcmp.o(.text)
    __aeabi_fadd                             0x08018b53   Thumb Code   164  fadd.o(.text)
    __aeabi_fsub                             0x08018bf7   Thumb Code     6  fadd.o(.text)
    __aeabi_frsub                            0x08018bfd   Thumb Code     6  fadd.o(.text)
    __aeabi_fmul                             0x08018c03   Thumb Code   100  fmul.o(.text)
    __aeabi_fdiv                             0x08018c67   Thumb Code   124  fdiv.o(.text)
    __ARM_scalbnf                            0x08018ce3   Thumb Code    24  fscalb.o(.text)
    scalbnf                                  0x08018ce3   Thumb Code     0  fscalb.o(.text)
    __aeabi_dadd                             0x08018cfb   Thumb Code   322  dadd.o(.text)
    __aeabi_dsub                             0x08018e3d   Thumb Code     6  dadd.o(.text)
    __aeabi_drsub                            0x08018e43   Thumb Code     6  dadd.o(.text)
    __aeabi_dmul                             0x08018e49   Thumb Code   228  dmul.o(.text)
    __aeabi_ddiv                             0x08018f2d   Thumb Code   222  ddiv.o(.text)
    __ARM_scalbn                             0x0801900b   Thumb Code    46  dscalb.o(.text)
    scalbn                                   0x0801900b   Thumb Code     0  dscalb.o(.text)
    __aeabi_i2f                              0x08019039   Thumb Code    18  fflti.o(.text)
    __aeabi_ui2f                             0x0801904b   Thumb Code    10  ffltui.o(.text)
    __aeabi_l2f                              0x08019055   Thumb Code    44  ffltl.o(.text)
    __aeabi_i2d                              0x08019081   Thumb Code    34  dflti.o(.text)
    __aeabi_ui2d                             0x080190a3   Thumb Code    26  dfltui.o(.text)
    __aeabi_f2iz                             0x080190bd   Thumb Code    50  ffixi.o(.text)
    __aeabi_f2lz                             0x080190ef   Thumb Code    66  ffixl.o(.text)
    __aeabi_d2iz                             0x08019131   Thumb Code    62  dfixi.o(.text)
    __aeabi_f2d                              0x0801916f   Thumb Code    38  f2d.o(.text)
    __aeabi_cdcmpeq                          0x08019195   Thumb Code     0  cdcmple.o(.text)
    __aeabi_cdcmple                          0x08019195   Thumb Code    48  cdcmple.o(.text)
    __aeabi_cdrcmple                         0x080191c5   Thumb Code    48  cdrcmple.o(.text)
    __aeabi_d2f                              0x080191f5   Thumb Code    56  d2f.o(.text)
    __aeabi_cfcmpeq                          0x0801922d   Thumb Code     0  cfcmple.o(.text)
    __aeabi_cfcmple                          0x0801922d   Thumb Code    20  cfcmple.o(.text)
    __aeabi_cfrcmple                         0x08019241   Thumb Code    20  cfrcmple.o(.text)
    __aeabi_uidiv                            0x08019255   Thumb Code     0  uidiv.o(.text)
    __aeabi_uidivmod                         0x08019255   Thumb Code    44  uidiv.o(.text)
    __aeabi_uldivmod                         0x08019281   Thumb Code    98  uldiv.o(.text)
    __aeabi_llsr                             0x080192e3   Thumb Code    32  llushr.o(.text)
    _ll_ushift_r                             0x080192e3   Thumb Code     0  llushr.o(.text)
    __I$use$fp                               0x08019303   Thumb Code     0  iusefp.o(.text)
    _float_round                             0x08019303   Thumb Code    18  fepilogue.o(.text)
    _float_epilogue                          0x08019315   Thumb Code    92  fepilogue.o(.text)
    _double_round                            0x08019371   Thumb Code    30  depilogue.o(.text)
    _double_epilogue                         0x0801938f   Thumb Code   156  depilogue.o(.text)
    _dsqrt                                   0x0801942b   Thumb Code   162  dsqrt.o(.text)
    __aeabi_d2ulz                            0x080194cd   Thumb Code    48  dfixul.o(.text)
    __scatterload                            0x080194fd   Thumb Code    28  init.o(.text)
    __scatterload_rt2                        0x080194fd   Thumb Code     0  init.o(.text)
    __decompress                             0x08019521   Thumb Code     0  __dczerorl2.o(.text)
    __decompress1                            0x08019521   Thumb Code    86  __dczerorl2.o(.text)
    __0printf                                0x08019579   Thumb Code    22  printfa.o(i.__0printf)
    __1printf                                0x08019579   Thumb Code     0  printfa.o(i.__0printf)
    __2printf                                0x08019579   Thumb Code     0  printfa.o(i.__0printf)
    __c89printf                              0x08019579   Thumb Code     0  printfa.o(i.__0printf)
    printf                                   0x08019579   Thumb Code     0  printfa.o(i.__0printf)
    __0vsprintf                              0x08019599   Thumb Code    30  printfa.o(i.__0vsprintf)
    __1vsprintf                              0x08019599   Thumb Code     0  printfa.o(i.__0vsprintf)
    __2vsprintf                              0x08019599   Thumb Code     0  printfa.o(i.__0vsprintf)
    __c89vsprintf                            0x08019599   Thumb Code     0  printfa.o(i.__0vsprintf)
    vsprintf                                 0x08019599   Thumb Code     0  printfa.o(i.__0vsprintf)
    __ARM_fpclassify                         0x080195bd   Thumb Code    48  fpclassify.o(i.__ARM_fpclassify)
    __ARM_fpclassifyf                        0x080195ed   Thumb Code    38  fpclassifyf.o(i.__ARM_fpclassifyf)
    __hardfp_acos                            0x08019619   Thumb Code   738  acos.o(i.__hardfp_acos)
    __hardfp_acosf                           0x08019971   Thumb Code   234  acosf.o(i.__hardfp_acosf)
    __hardfp_asin                            0x08019a89   Thumb Code   770  asin.o(i.__hardfp_asin)
    __hardfp_asinf                           0x08019de9   Thumb Code   258  asinf.o(i.__hardfp_asinf)
    __hardfp_atan                            0x08019f19   Thumb Code   622  atan.o(i.__hardfp_atan)
    __hardfp_atan2                           0x0801a1f1   Thumb Code   432  atan2.o(i.__hardfp_atan2)
    __hardfp_atan2f                          0x0801a3e1   Thumb Code   502  atan2f.o(i.__hardfp_atan2f)
    __hardfp_cos                             0x0801a631   Thumb Code   180  cos.o(i.__hardfp_cos)
    __hardfp_cosf                            0x0801a6f9   Thumb Code   280  cosf.o(i.__hardfp_cosf)
    __hardfp_fabs                            0x0801a849   Thumb Code    20  fabs.o(i.__hardfp_fabs)
    __hardfp_log                             0x0801a861   Thumb Code   872  log.o(i.__hardfp_log)
    __hardfp_sin                             0x0801ac29   Thumb Code   180  sin.o(i.__hardfp_sin)
    __hardfp_sinf                            0x0801acf1   Thumb Code   344  sinf.o(i.__hardfp_sinf)
    __hardfp_sqrt                            0x0801ae81   Thumb Code   122  sqrt.o(i.__hardfp_sqrt)
    __hardfp_sqrtf                           0x0801aefb   Thumb Code    58  sqrtf.o(i.__hardfp_sqrtf)
    __ieee754_rem_pio2                       0x0801af39   Thumb Code   938  rred.o(i.__ieee754_rem_pio2)
    __kernel_cos                             0x0801b371   Thumb Code   322  cos_i.o(i.__kernel_cos)
    __kernel_poly                            0x0801b4e1   Thumb Code   248  poly.o(i.__kernel_poly)
    __kernel_sin                             0x0801b5d9   Thumb Code   280  sin_i.o(i.__kernel_sin)
    __mathlib_dbl_divzero                    0x0801b709   Thumb Code    28  dunder.o(i.__mathlib_dbl_divzero)
    __mathlib_dbl_infnan                     0x0801b739   Thumb Code    20  dunder.o(i.__mathlib_dbl_infnan)
    __mathlib_dbl_infnan2                    0x0801b74d   Thumb Code    20  dunder.o(i.__mathlib_dbl_infnan2)
    __mathlib_dbl_invalid                    0x0801b761   Thumb Code    24  dunder.o(i.__mathlib_dbl_invalid)
    __mathlib_dbl_underflow                  0x0801b781   Thumb Code    24  dunder.o(i.__mathlib_dbl_underflow)
    __mathlib_flt_infnan                     0x0801b7a1   Thumb Code     6  funder.o(i.__mathlib_flt_infnan)
    __mathlib_flt_infnan2                    0x0801b7a7   Thumb Code     6  funder.o(i.__mathlib_flt_infnan2)
    __mathlib_flt_invalid                    0x0801b7ad   Thumb Code    10  funder.o(i.__mathlib_flt_invalid)
    __mathlib_flt_underflow                  0x0801b7bd   Thumb Code    10  funder.o(i.__mathlib_flt_underflow)
    __mathlib_rredf2                         0x0801b7cd   Thumb Code   316  rredf.o(i.__mathlib_rredf2)
    __scatterload_copy                       0x0801b921   Thumb Code    14  handlers.o(i.__scatterload_copy)
    __scatterload_null                       0x0801b92f   Thumb Code     2  handlers.o(i.__scatterload_null)
    __scatterload_zeroinit                   0x0801b931   Thumb Code    14  handlers.o(i.__scatterload_zeroinit)
    __set_errno                              0x0801b941   Thumb Code     6  errno.o(i.__set_errno)
    acosf                                    0x0801c1e9   Thumb Code    16  acosf.o(i.acosf)
    atan                                     0x0801c1f9   Thumb Code    16  atan.o(i.atan)
    cos                                      0x0801c209   Thumb Code    16  cos.o(i.cos)
    cosf                                     0x0801c219   Thumb Code    16  cosf.o(i.cosf)
    fabs                                     0x0801c229   Thumb Code    24  fabs.o(i.fabs)
    free                                     0x0801c241   Thumb Code    76  malloc.o(i.free)
    log                                      0x0801c291   Thumb Code    16  log.o(i.log)
    malloc                                   0x0801c2a1   Thumb Code    92  malloc.o(i.malloc)
    sinf                                     0x0801c30d   Thumb Code    16  sinf.o(i.sinf)
    sqrt                                     0x0801c31d   Thumb Code   110  sqrt.o(i.sqrt)
    sqrtf                                    0x0801c38b   Thumb Code    62  sqrtf.o(i.sqrtf)
    asc2_1206                                0x0801c3c8   Data        1140  oled.o(.constdata)
    asc2_1608                                0x0801c83c   Data        1520  oled.o(.constdata)
    asc2_2412                                0x0801ce2c   Data        3420  oled.o(.constdata)
    TX_ADDRESS                               0x0801db88   Data           5  nrf24l01.o(.constdata)
    RX_ADDRESS                               0x0801db8d   Data           5  nrf24l01.o(.constdata)
    reg                                      0x0801db98   Data          42  inv_mpu.o(.constdata)
    hw                                       0x0801dbc2   Data          14  inv_mpu.o(.constdata)
    test                                     0x0801dbd0   Data          48  inv_mpu.o(.constdata)
    sin_lookup                               0x0801e9f8   Data        1024  ml_math_func.o(.constdata)
    ml_ver                                   0x0801edf8   Data          20  mpl.o(.constdata)
    __mathlib_zero                           0x0801efc8   Data           8  qnan.o(.constdata)
    Region$$Table$$Base                      0x0801f130   Number         0  anon$$obj.o(Region$$Table)
    Region$$Table$$Limit                     0x0801f150   Number         0  anon$$obj.o(Region$$Table)
    p                                        0x20000000   Data           4  main.o(.data)
    num_site                                 0x20000004   Data           4  main.o(.data)
    llll                                     0x20000008   Data           4  main.o(.data)
    mmmm                                     0x2000000c   Data           4  main.o(.data)
    fmmm                                     0x20000010   Data           4  main.o(.data)
    show_mmmm                                0x20000014   Data           4  main.o(.data)
    Encoder_Distance_model                   0x20000018   Data           4  main.o(.data)
    key                                      0x2000001c   Data           4  main.o(.data)
    steppingmotor1_angle                     0x20000020   Data           4  main.o(.data)
    steppingmotor2_angle                     0x20000024   Data           4  main.o(.data)
    steppingmotor3_angle                     0x20000028   Data           4  main.o(.data)
    steppingmotor4_angle                     0x2000002c   Data           4  main.o(.data)
    steppingmotor1_speed                     0x20000030   Data           4  main.o(.data)
    steppingmotor2_speed                     0x20000034   Data           4  main.o(.data)
    steppingmotor3_speed                     0x20000038   Data           4  main.o(.data)
    steppingmotor4_speed                     0x2000003c   Data           4  main.o(.data)
    pwm                                      0x20000040   Data           4  main.o(.data)
    Expectation_Angle                        0x20000044   Data           4  main.o(.data)
    i                                        0x20000048   Data           1  main.o(.data)
    Send_Count                               0x20000049   Data           1  main.o(.data)
    ll                                       0x2000004c   Data           4  main.o(.data)
    iii                                      0x20000050   Data           4  main.o(.data)
    value                                    0x20000054   Data           2  main.o(.data)
    vol                                      0x20000058   Data           4  main.o(.data)
    out                                      0x2000005c   Data          10  main.o(.data)
    ao                                       0x20000068   Data           4  main.o(.data)
    bo                                       0x2000006c   Data           4  main.o(.data)
    co                                       0x20000070   Data           4  main.o(.data)
    xx                                       0x20000074   Data           4  main.o(.data)
    lll                                      0x20000078   Data           4  main.o(.data)
    t1x                                      0x2000007c   Data           1  main.o(.data)
    r1x                                      0x2000007d   Data           2  main.o(.data)
    mode                                     0x20000080   Data           4  main.o(.data)
    SystemCoreClock                          0x20000084   Data           4  system_stm32f4xx.o(.data)
    AHBPrescTable                            0x20000088   Data          16  system_stm32f4xx.o(.data)
    Mod                                      0x20000098   Data           4  key.o(.data)
    Chinese                                  0x200000a0   Data        1024  oled.o(.data)
    task_set                                 0x200004a0   Data           4  oled.o(.data)
    flag7                                    0x200004a4   Data           4  control.o(.data)
    ins                                      0x200004a8   Data           4  control.o(.data)
    Control_AND_Xunji                        0x200004ac   Data           4  control.o(.data)
    Control_AND_Xunji2                       0x200004b0   Data           4  control.o(.data)
    pitch                                    0x200004b4   Data           4  control.o(.data)
    roll                                     0x200004b8   Data           4  control.o(.data)
    yaw                                      0x200004bc   Data           4  control.o(.data)
    yaw_C                                    0x200004c0   Data           4  control.o(.data)
    aacx                                     0x200004c4   Data           2  control.o(.data)
    aacy                                     0x200004c6   Data           2  control.o(.data)
    aacz                                     0x200004c8   Data           2  control.o(.data)
    gyrox                                    0x200004ca   Data           2  control.o(.data)
    gyroy                                    0x200004cc   Data           2  control.o(.data)
    gyroz                                    0x200004ce   Data           2  control.o(.data)
    temp                                     0x200004d0   Data           2  control.o(.data)
    speed_angle                              0x200004d4   Data           4  control.o(.data)
    ENA                                      0x200004d8   Data           4  control.o(.data)
    ENB                                      0x200004dc   Data           4  control.o(.data)
    TagetA                                   0x200004e0   Data           4  control.o(.data)
    TagetB                                   0x200004e4   Data           4  control.o(.data)
    TagetC                                   0x200004e8   Data           4  control.o(.data)
    TagetD                                   0x200004ec   Data           4  control.o(.data)
    ENA1                                     0x200004f0   Data           4  control.o(.data)
    ENB1                                     0x200004f4   Data           4  control.o(.data)
    ENC1                                     0x200004f8   Data           4  control.o(.data)
    Fab_ENA                                  0x200004fc   Data           4  control.o(.data)
    Fab_ENB                                  0x20000500   Data           4  control.o(.data)
    Fab_ENC                                  0x20000504   Data           4  control.o(.data)
    b                                        0x20000508   Data           4  control.o(.data)
    F_SITE                                   0x2000050c   Data           4  control.o(.data)
    B_SITE                                   0x20000510   Data           4  control.o(.data)
    L_SITE                                   0x20000514   Data           4  control.o(.data)
    R_SITE                                   0x20000518   Data           4  control.o(.data)
    OUTPUT                                   0x2000051c   Data           4  control.o(.data)
    OUTPUT1                                  0x20000520   Data           4  control.o(.data)
    OUTPUT2                                  0x20000524   Data           4  control.o(.data)
    PID_value                                0x20000528   Data           4  control.o(.data)
    PID_sd                                   0x2000052c   Data           4  control.o(.data)
    PID_jc                                   0x20000530   Data           4  control.o(.data)
    error                                    0x20000534   Data           4  control.o(.data)
    a                                        0x20000538   Data           4  control.o(.data)
    stopconfig                               0x2000053c   Data           4  control.o(.data)
    Encoder_Left_Front                       0x20000540   Data           4  control.o(.data)
    Encoder_Left_Beside                      0x20000544   Data           4  control.o(.data)
    Encoder_Right_Front                      0x20000548   Data           4  control.o(.data)
    Encoder_Right_Beside                     0x2000054c   Data           4  control.o(.data)
    Left_t                                   0x20000550   Data           4  control.o(.data)
    Right_t                                  0x20000554   Data           4  control.o(.data)
    Encoder_R_Front                          0x20000558   Data           4  control.o(.data)
    Encoder_L_Front                          0x2000055c   Data           4  control.o(.data)
    Encoder_R_Beside                         0x20000560   Data           4  control.o(.data)
    Encoder_L_Beside                         0x20000564   Data           4  control.o(.data)
    Moto_Left_Front                          0x20000568   Data           4  control.o(.data)
    Moto_Right_Front                         0x2000056c   Data           4  control.o(.data)
    Moto_Left_Beside                         0x20000570   Data           4  control.o(.data)
    Moto_Right_Beside                        0x20000574   Data           4  control.o(.data)
    para_L_Front                             0x20000578   Data           4  control.o(.data)
    para_R_Front                             0x2000057c   Data           4  control.o(.data)
    para_L_Beside                            0x20000580   Data           4  control.o(.data)
    para_R_Beside                            0x20000584   Data           4  control.o(.data)
    SetPoint                                 0x20000588   Data           4  control.o(.data)
    flag_inc                                 0x2000058c   Data           4  control.o(.data)
    c1                                       0x20000590   Data           4  control.o(.data)
    c2                                       0x20000594   Data           4  control.o(.data)
    c3                                       0x20000598   Data           4  control.o(.data)
    c4                                       0x2000059c   Data           4  control.o(.data)
    speed                                    0x200005a0   Data           4  control.o(.data)
    xunji_zhi                                0x200005a4   Data           4  control.o(.data)
    setspeed                                 0x200005a8   Data           4  control.o(.data)
    ss                                       0x200005ac   Data           4  control.o(.data)
    angle_ex                                 0x200005b0   Data           4  control.o(.data)
    speed1                                   0x200005b4   Data           4  control.o(.data)
    speed2                                   0x200005b8   Data           4  control.o(.data)
    speed3                                   0x200005bc   Data           4  control.o(.data)
    speed4                                   0x200005c0   Data           4  control.o(.data)
    speed_Y1                                 0x200005c4   Data           4  control.o(.data)
    start_site                               0x200005c8   Data           4  control.o(.data)
    start_flag                               0x200005cc   Data           4  control.o(.data)
    speed_bais                               0x200005d0   Data           4  control.o(.data)
    speed_A1                                 0x200005d4   Data           4  control.o(.data)
    speed_B1                                 0x200005d8   Data           4  control.o(.data)
    speed_C1                                 0x200005dc   Data           4  control.o(.data)
    speed_D1                                 0x200005e0   Data           4  control.o(.data)
    velocity_decrease                        0x200005e4   Data           4  control.o(.data)
    Encoder_Length_L1                        0x20000604   Data           4  encoder.o(.data)
    Encoder_Length_R1                        0x20000608   Data           4  encoder.o(.data)
    Encoder_Length_L2                        0x2000060c   Data           4  encoder.o(.data)
    Encoder_Length_R2                        0x20000610   Data           4  encoder.o(.data)
    Encoder_Fabs_L1                          0x20000614   Data           4  encoder.o(.data)
    Encoder_Fabs_L2                          0x20000618   Data           4  encoder.o(.data)
    Encoder_Fabs_R1                          0x2000061c   Data           4  encoder.o(.data)
    Encoder_Fabs_R2                          0x20000620   Data           4  encoder.o(.data)
    Encoder_Fabs_L1_last                     0x20000624   Data           4  encoder.o(.data)
    Encoder_Fabs_L2_last                     0x20000628   Data           4  encoder.o(.data)
    Encoder_Fabs_R1_last                     0x2000062c   Data           4  encoder.o(.data)
    Encoder_Fabs_R2_last                     0x20000630   Data           4  encoder.o(.data)
    pp                                       0x20000634   Data           4  motor.o(.data)
    distance_average                         0x20000638   Data           4  motor.o(.data)
    zd_site                                  0x2000063c   Data           4  timer.o(.data)
    aa                                       0x20000640   Data           4  timer.o(.data)
    bb                                       0x20000644   Data           4  timer.o(.data)
    c                                        0x20000648   Data           4  timer.o(.data)
    d                                        0x2000064c   Data           4  timer.o(.data)
    site                                     0x20000650   Data           4  timer.o(.data)
    pulse                                    0x20000654   Data           4  timer.o(.data)
    count                                    0x20000658   Data           4  timer.o(.data)
    TIM5CH1_CAPTURE_STA                      0x20000660   Data           1  sonic.o(.data)
    TIM5CH1_CAPTURE_VAL                      0x20000664   Data           4  sonic.o(.data)
    TIM5CH2_CAPTURE_STA                      0x20000668   Data           1  sonic.o(.data)
    TIM5CH2_CAPTURE_VAL                      0x2000066c   Data           4  sonic.o(.data)
    TIM5CH3_CAPTURE_STA                      0x20000670   Data           1  sonic.o(.data)
    TIM5CH3_CAPTURE_VAL                      0x20000674   Data           4  sonic.o(.data)
    TIM5CH4_CAPTURE_STA                      0x20000678   Data           1  sonic.o(.data)
    TIM5CH4_CAPTURE_VAL                      0x2000067c   Data           4  sonic.o(.data)
    tempF                                    0x20000680   Data           8  sonic.o(.data)
    tempB                                    0x20000688   Data           8  sonic.o(.data)
    tempL_1                                  0x20000690   Data           8  sonic.o(.data)
    tempL_2                                  0x20000698   Data           8  sonic.o(.data)
    tempR_1                                  0x200006a0   Data           8  sonic.o(.data)
    tempR_2                                  0x200006a8   Data           8  sonic.o(.data)
    TEMPA_1                                  0x200006b0   Data           4  sonic.o(.data)
    TEMPA_2                                  0x200006b4   Data           4  sonic.o(.data)
    TEMPA_3                                  0x200006b8   Data           4  sonic.o(.data)
    TEMPA_4                                  0x200006bc   Data           4  sonic.o(.data)
    TEMPA_5                                  0x200006c0   Data           4  sonic.o(.data)
    TEMPA_6                                  0x200006c4   Data           4  sonic.o(.data)
    Front_cishu                              0x200006d0   Data           4  exti.o(.data)
    Left_cishu                               0x200006d4   Data           4  exti.o(.data)
    First_count                              0x200006d8   Data           4  exti.o(.data)
    Second_count                             0x200006dc   Data           4  exti.o(.data)
    First_count2                             0x200006e0   Data           4  exti.o(.data)
    Second_count2                            0x200006e4   Data           4  exti.o(.data)
    First_count3                             0x200006e8   Data           4  exti.o(.data)
    Second_count3                            0x200006ec   Data           4  exti.o(.data)
    First_count4                             0x200006f0   Data           4  exti.o(.data)
    Second_count4                            0x200006f4   Data           4  exti.o(.data)
    First_count5                             0x200006f8   Data           4  exti.o(.data)
    Second_count5                            0x200006fc   Data           4  exti.o(.data)
    First_count6                             0x20000700   Data           4  exti.o(.data)
    Second_count6                            0x20000704   Data           4  exti.o(.data)
    First_count7                             0x20000708   Data           4  exti.o(.data)
    First_count8                             0x2000070c   Data           4  exti.o(.data)
    First_count9                             0x20000710   Data           4  exti.o(.data)
    First_count10                            0x20000714   Data           4  exti.o(.data)
    First_count11                            0x20000718   Data           4  exti.o(.data)
    First_count12                            0x2000071c   Data           4  exti.o(.data)
    First_count13                            0x20000720   Data           4  exti.o(.data)
    First_count14                            0x20000724   Data           4  exti.o(.data)
    First_count15                            0x20000728   Data           4  exti.o(.data)
    First_count16                            0x2000072c   Data           4  exti.o(.data)
    First_count17                            0x20000730   Data           4  exti.o(.data)
    First_count18                            0x20000734   Data           4  exti.o(.data)
    First_count19                            0x20000738   Data           4  exti.o(.data)
    First_count20                            0x2000073c   Data           4  exti.o(.data)
    First_count21                            0x20000740   Data           4  exti.o(.data)
    First_count22                            0x20000744   Data           4  exti.o(.data)
    First_count23                            0x20000748   Data           4  exti.o(.data)
    First_count24                            0x2000074c   Data           4  exti.o(.data)
    First_count25                            0x20000750   Data           4  exti.o(.data)
    First_count26                            0x20000754   Data           4  exti.o(.data)
    First_count27                            0x20000758   Data           4  exti.o(.data)
    First_count28                            0x2000075c   Data           4  exti.o(.data)
    First_count29                            0x20000760   Data           4  exti.o(.data)
    First_count30                            0x20000764   Data           4  exti.o(.data)
    First_count31                            0x20000768   Data           4  exti.o(.data)
    First_count32                            0x2000076c   Data           4  exti.o(.data)
    First_count33                            0x20000770   Data           4  exti.o(.data)
    First_count34                            0x20000774   Data           4  exti.o(.data)
    First_count35                            0x20000778   Data           4  exti.o(.data)
    First_count36                            0x2000077c   Data           4  exti.o(.data)
    First_count37                            0x20000780   Data           4  exti.o(.data)
    First_count38                            0x20000784   Data           4  exti.o(.data)
    First_count39                            0x20000788   Data           4  exti.o(.data)
    First_count40                            0x2000078c   Data           4  exti.o(.data)
    Second_count7                            0x20000790   Data           4  exti.o(.data)
    SPULA                                    0x200007b0   Data           4  bujin.o(.data)
    SPULB                                    0x200007b4   Data           4  bujin.o(.data)
    SPULC                                    0x200007b8   Data           4  bujin.o(.data)
    SPULD                                    0x200007bc   Data           4  bujin.o(.data)
    flagA                                    0x200007c0   Data           4  bujin.o(.data)
    flagB                                    0x200007c4   Data           4  bujin.o(.data)
    flagC                                    0x200007c8   Data           4  bujin.o(.data)
    flagD                                    0x200007cc   Data           4  bujin.o(.data)
    SpeedA                                   0x200007d0   Data           4  bujin.o(.data)
    SpeedB                                   0x200007d4   Data           4  bujin.o(.data)
    SpeedC                                   0x200007d8   Data           4  bujin.o(.data)
    SpeedD                                   0x200007dc   Data           4  bujin.o(.data)
    countA                                   0x200007e0   Data           4  bujin.o(.data)
    countB                                   0x200007e4   Data           4  bujin.o(.data)
    countC                                   0x200007e8   Data           4  bujin.o(.data)
    countD                                   0x200007ec   Data           4  bujin.o(.data)
    ReceiveData                              0x20000802   Data           1  usart2dma.o(.data)
    Res                                      0x20000804   Data           2  usart2dma.o(.data)
    Res_2                                    0x20000806   Data           2  usart2dma.o(.data)
    angle_1                                  0x2000080c   Data           1  usart3dma.o(.data)
    angle_2                                  0x2000080d   Data           1  usart3dma.o(.data)
    angle_z                                  0x2000080e   Data           2  usart3dma.o(.data)
    yaw_2                                    0x20000810   Data           4  usart3dma.o(.data)
    Res_3                                    0x20000814   Data           2  usart3dma.o(.data)
    flagg                                    0x20000818   Data           4  usart3dma.o(.data)
    Receive_ok                               0x20000820   Data           1  usart4dma.o(.data)
    Res_4                                    0x20000822   Data           2  usart4dma.o(.data)
    Num                                      0x20000824   Data           1  usart4dma.o(.data)
    a222                                     0x20000828   Data           4  usart4dma.o(.data)
    t                                        0x20000830   Data           1  nrf24l01.o(.data)
    NRF_Flag                                 0x20000831   Data           1  nrf24l01.o(.data)
    Rece_Data                                0x20000834   Data           4  nrf24l01.o(.data)
    __stdout                                 0x2000083c   Data           4  usart.o(.data)
    sss                                      0x20000840   Data           4  usart.o(.data)
    openmv_site                              0x20000844   Data           4  usart.o(.data)
    color_flag                               0x20000848   Data           4  usart.o(.data)
    SendData                                 0x2000084c   Data           8  usart.o(.data)
    SendData1                                0x20000854   Data           8  usart.o(.data)
    SendData2                                0x2000085c   Data           8  usart.o(.data)
    flag                                     0x20000864   Data           1  usart.o(.data)
    flag2                                    0x20000865   Data           1  usart.o(.data)
    he1                                      0x20000866   Data           2  usart.o(.data)
    he2                                      0x20000868   Data           2  usart.o(.data)
    he3                                      0x2000086a   Data           2  usart.o(.data)
    he4                                      0x2000086c   Data           2  usart.o(.data)
    guocheng                                 0x20000870   Data           4  usart.o(.data)
    color_site                               0x20000874   Data           4  usart.o(.data)
    USART_RX_STA                             0x20000878   Data           2  usart.o(.data)
    mpl_key                                  0x2000088c   Data           4  inv_mpu.o(.data)
    compass_low_pass_filter_coeff            0x200008dc   Data          20  hal_outputs.o(.data)
    __microlib_freelist                      0x20000904   Data           4  mvars.o(.data)
    __microlib_freelist_initialised          0x20000908   Data           4  mvars.o(.data)
    OLED_GRAM                                0x20000910   Data        1024  oled.o(.bss)
    Encoder                                  0x20000d10   Data          16  encoder.o(.bss)
    PID_Inner                                0x20000d20   Data          56  pid.o(.bss)
    PID_Inner2                               0x20000d58   Data          56  pid.o(.bss)
    PID_velocity                             0x20000d90   Data          56  pid.o(.bss)
    PID_xunji                                0x20000dc8   Data          56  pid.o(.bss)
    PID_xunji2                               0x20000e00   Data          56  pid.o(.bss)
    PID_xunji3                               0x20000e38   Data          56  pid.o(.bss)
    PID_weizhi                               0x20000e70   Data          56  pid.o(.bss)
    PID_weizhi2                              0x20000ea8   Data          56  pid.o(.bss)
    Sonic_Dis                                0x20000ee0   Data          36  sonic.o(.bss)
    SonicA1_Filter                           0x20000f04   Data          72  sonic.o(.bss)
    SonicA2_Filter                           0x20000f4c   Data          72  sonic.o(.bss)
    SonicA3_Filter                           0x20000f94   Data          72  sonic.o(.bss)
    SonicA4_Filter                           0x20000fdc   Data          72  sonic.o(.bss)
    SonicA5_Filter                           0x20001024   Data          72  sonic.o(.bss)
    SonicA6_Filter                           0x2000106c   Data          72  sonic.o(.bss)
    rec_data_u1                              0x200010b4   Data          20  usartdma.o(.bss)
    send_data_u1                             0x200010c8   Data          20  usartdma.o(.bss)
    rec_data_u2                              0x200010f0   Data          42  usart2dma.o(.bss)
    send_data_u2                             0x2000111a   Data          42  usart2dma.o(.bss)
    num                                      0x20001144   Data          16  usart2dma.o(.bss)
    rec_data_u3                              0x20001154   Data          60  usart3dma.o(.bss)
    send_data_u3                             0x20001190   Data          60  usart3dma.o(.bss)
    num_3                                    0x200011cc   Data          16  usart3dma.o(.bss)
    DataScope_OutPut_Buffer                  0x200011f0   Data          42  usart4dma.o(.bss)
    rec_data_u4                              0x2000121a   Data          60  usart4dma.o(.bss)
    send_data_u4                             0x20001256   Data          60  usart4dma.o(.bss)
    num_4                                    0x20001294   Data          16  usart4dma.o(.bss)
    tmp_buf                                  0x200012a4   Data          33  nrf24l01.o(.bss)
    cb                                       0x20001910   Data         232  compass_vec_cal.o(.bss)
    cb_test                                  0x200019f8   Data         232  compass_vec_cal.o(.bss)
    cb_sim                                   0x20001ae0   Data         232  compass_vec_cal.o(.bss)
    vc                                       0x20001bc8   Data         424  compass_vec_cal.o(.bss)
    fnm                                      0x20001d70   Data         608  fast_no_motion.o(.bss)
    s9axis                                   0x20002010   Data         312  fusion_9axis.o(.bss)
    mag_disturb                              0x2000230c   Data         184  mag_disturb.o(.bss)
    __heap_base                              0x200028e8   Data           0  startup_stm32f40_41xxx.o(HEAP)
    __heap_limit                             0x20002ae8   Data           0  startup_stm32f40_41xxx.o(HEAP)
    __initial_sp                             0x20002ee8   Data           0  startup_stm32f40_41xxx.o(STACK)



==============================================================================

Memory Map of the image

  Image Entry point : 0x08000189

  Load Region LR_IROM1 (Base: 0x08000000, Size: 0x0001fa60, Max: 0x00100000, ABSOLUTE, COMPRESSED[0x0001f498])

    Execution Region ER_IROM1 (Base: 0x08000000, Size: 0x0001f150, Max: 0x00100000, ABSOLUTE)

    Base Addr    Size         Type   Attr      Idx    E Section Name        Object

    0x08000000   0x00000188   Data   RO         1001    RESET               startup_stm32f40_41xxx.o
    0x08000188   0x00000000   Code   RO         2015  * .ARM.Collect$$$$00000000  mc_w.l(entry.o)
    0x08000188   0x00000004   Code   RO         2421    .ARM.Collect$$$$00000001  mc_w.l(entry2.o)
    0x0800018c   0x00000004   Code   RO         2424    .ARM.Collect$$$$00000004  mc_w.l(entry5.o)
    0x08000190   0x00000000   Code   RO         2426    .ARM.Collect$$$$00000008  mc_w.l(entry7b.o)
    0x08000190   0x00000000   Code   RO         2428    .ARM.Collect$$$$0000000A  mc_w.l(entry8b.o)
    0x08000190   0x00000008   Code   RO         2429    .ARM.Collect$$$$0000000B  mc_w.l(entry9a.o)
    0x08000198   0x00000000   Code   RO         2431    .ARM.Collect$$$$0000000D  mc_w.l(entry10a.o)
    0x08000198   0x00000000   Code   RO         2433    .ARM.Collect$$$$0000000F  mc_w.l(entry11a.o)
    0x08000198   0x00000004   Code   RO         2422    .ARM.Collect$$$$00002712  mc_w.l(entry2.o)
    0x0800019c   0x00000b64   Code   RO            3    .text               main.o
    0x08000d00   0x0000001a   Code   RO          238    .text               stm32f4xx_it.o
    0x08000d1a   0x00000002   PAD
    0x08000d1c   0x00000210   Code   RO          287    .text               system_stm32f4xx.o
    0x08000f2c   0x000000fc   Code   RO          313    .text               led.o
    0x08001028   0x00000684   Code   RO          333    .text               key.o
    0x080016ac   0x00000430   Code   RO          360    .text               mpu9250.o
    0x08001adc   0x00000264   Code   RO          383    .text               mpuiic.o
    0x08001d40   0x0000094c   Code   RO          403    .text               oled.o
    0x0800268c   0x0000128c   Code   RO          432    .text               control.o
    0x08003918   0x000004dc   Code   RO          463    .text               encoder.o
    0x08003df4   0x000000c4   Code   RO          487    .text               xunji.o
    0x08003eb8   0x00001e9c   Code   RO          507    .text               motor.o
    0x08005d54   0x00000348   Code   RO          531    .text               pid.o
    0x0800609c   0x00000574   Code   RO          559    .text               pwm.o
    0x08006610   0x0000005c   Code   RO          579    .text               timer.o
    0x0800666c   0x00000794   Code   RO          602    .text               sonic.o
    0x08006e00   0x000003f0   Code   RO          632    .text               filter.o
    0x080071f0   0x00000a28   Code   RO          647    .text               exti.o
    0x08007c18   0x00000320   Code   RO          694    .text               bujin.o
    0x08007f38   0x000003b0   Code   RO          731    .text               usartdma.o
    0x080082e8   0x0000043c   Code   RO          759    .text               usart2dma.o
    0x08008724   0x00000200   Code   RO          790    .text               usart3dma.o
    0x08008924   0x000006f8   Code   RO          819    .text               usart4dma.o
    0x0800901c   0x00000708   Code   RO          876    .text               nrf24l01.o
    0x08009724   0x00000110   Code   RO          908    .text               spi.o
    0x08009834   0x00000104   Code   RO          928    .text               delay.o
    0x08009938   0x000000d0   Code   RO          968    .text               usart.o
    0x08009a08   0x00000024   Code   RO         1002    .text               startup_stm32f40_41xxx.o
    0x08009a2c   0x000000e0   Code   RO         1008    .text               misc.o
    0x08009b0c   0x00000294   Code   RO         1051    .text               stm32f4xx_gpio.o
    0x08009da0   0x0000065c   Code   RO         1071    .text               stm32f4xx_rcc.o
    0x0800a3fc   0x00000094   Code   RO         1093    .text               stm32f4xx_syscfg.o
    0x0800a490   0x00000454   Code   RO         1113    .text               stm32f4xx_usart.o
    0x0800a8e4   0x00000ca2   Code   RO         1133    .text               stm32f4xx_tim.o
    0x0800b586   0x00000002   PAD
    0x0800b588   0x00000110   Code   RO         1153    .text               stm32f4xx_exti.o
    0x0800b698   0x000003a8   Code   RO         1173    .text               stm32f4xx_dma.o
    0x0800ba40   0x00000480   Code   RO         1213    .text               stm32f4xx_spi.o
    0x0800bec0   0x00003cd4   Code   RO         1233    .text               inv_mpu.o
    0x0800fb94   0x00000d90   Code   RO         1361    .text               inv_mpu_dmp_motion_driver.o
    0x08010924   0x0000031c   Code   RO         1390    .text               log_stm32.o
    0x08010c40   0x0000050c   Code   RO         1408    .text               empl_outputs.o
    0x0801114c   0x00000c8c   Code   RO         1428    .text               data_builder.o
    0x08011dd8   0x00000740   Code   RO         1452    .text               hal_outputs.o
    0x08012518   0x0000002c   Code   RO         1468    .text               message_layer.o
    0x08012544   0x00001034   Code   RO         1482    .text               ml_math_func.o
    0x08013578   0x000000f0   Code   RO         1512    .text               mpl.o
    0x08013668   0x00000408   Code   RO         1533    .text               results_holder.o
    0x08013a70   0x000000b8   Code   RO         1547    .text               start_manager.o
    0x08013b28   0x00000224   Code   RO         1561    .text               storage_manager.o
    0x08013d4c   0x00001e5c   Code   RO         1575    .text               libmpllib.lib(compass_vec_cal.o)
    0x08015ba8   0x000009f4   Code   RO         1665    .text               libmpllib.lib(fast_no_motion.o)
    0x0801659c   0x0000065c   Code   RO         1698    .text               libmpllib.lib(fusion_9axis.o)
    0x08016bf8   0x000004bc   Code   RO         1720    .text               libmpllib.lib(gyro_tc.o)
    0x080170b4   0x00000550   Code   RO         1738    .text               libmpllib.lib(mag_disturb.o)
    0x08017604   0x00000940   Code   RO         1760    .text               libmpllib.lib(quaternion_supervisor.o)
    0x08017f44   0x00000aec   Code   RO         1778    .text               libmpllib.lib(accel_auto_cal.o)
    0x08018a30   0x00000062   Code   RO         2018    .text               mc_w.l(ldiv.o)
    0x08018a92   0x0000001e   Code   RO         2020    .text               mc_w.l(llshl.o)
    0x08018ab0   0x00000024   Code   RO         2022    .text               mc_w.l(llsshr.o)
    0x08018ad4   0x00000040   Code   RO         2026    .text               mc_w.l(memmovea.o)
    0x08018b14   0x00000024   Code   RO         2028    .text               mc_w.l(memseta.o)
    0x08018b38   0x0000001a   Code   RO         2030    .text               mc_w.l(memcmp.o)
    0x08018b52   0x000000b0   Code   RO         2325    .text               mf_w.l(fadd.o)
    0x08018c02   0x00000064   Code   RO         2327    .text               mf_w.l(fmul.o)
    0x08018c66   0x0000007c   Code   RO         2329    .text               mf_w.l(fdiv.o)
    0x08018ce2   0x00000018   Code   RO         2331    .text               mf_w.l(fscalb.o)
    0x08018cfa   0x0000014e   Code   RO         2333    .text               mf_w.l(dadd.o)
    0x08018e48   0x000000e4   Code   RO         2335    .text               mf_w.l(dmul.o)
    0x08018f2c   0x000000de   Code   RO         2337    .text               mf_w.l(ddiv.o)
    0x0801900a   0x0000002e   Code   RO         2339    .text               mf_w.l(dscalb.o)
    0x08019038   0x00000012   Code   RO         2341    .text               mf_w.l(fflti.o)
    0x0801904a   0x0000000a   Code   RO         2343    .text               mf_w.l(ffltui.o)
    0x08019054   0x0000002c   Code   RO         2345    .text               mf_w.l(ffltl.o)
    0x08019080   0x00000022   Code   RO         2347    .text               mf_w.l(dflti.o)
    0x080190a2   0x0000001a   Code   RO         2349    .text               mf_w.l(dfltui.o)
    0x080190bc   0x00000032   Code   RO         2351    .text               mf_w.l(ffixi.o)
    0x080190ee   0x00000042   Code   RO         2353    .text               mf_w.l(ffixl.o)
    0x08019130   0x0000003e   Code   RO         2355    .text               mf_w.l(dfixi.o)
    0x0801916e   0x00000026   Code   RO         2357    .text               mf_w.l(f2d.o)
    0x08019194   0x00000030   Code   RO         2359    .text               mf_w.l(cdcmple.o)
    0x080191c4   0x00000030   Code   RO         2361    .text               mf_w.l(cdrcmple.o)
    0x080191f4   0x00000038   Code   RO         2363    .text               mf_w.l(d2f.o)
    0x0801922c   0x00000014   Code   RO         2365    .text               mf_w.l(cfcmple.o)
    0x08019240   0x00000014   Code   RO         2367    .text               mf_w.l(cfrcmple.o)
    0x08019254   0x0000002c   Code   RO         2435    .text               mc_w.l(uidiv.o)
    0x08019280   0x00000062   Code   RO         2437    .text               mc_w.l(uldiv.o)
    0x080192e2   0x00000020   Code   RO         2439    .text               mc_w.l(llushr.o)
    0x08019302   0x00000000   Code   RO         2450    .text               mc_w.l(iusefp.o)
    0x08019302   0x0000006e   Code   RO         2451    .text               mf_w.l(fepilogue.o)
    0x08019370   0x000000ba   Code   RO         2453    .text               mf_w.l(depilogue.o)
    0x0801942a   0x000000a2   Code   RO         2457    .text               mf_w.l(dsqrt.o)
    0x080194cc   0x00000030   Code   RO         2459    .text               mf_w.l(dfixul.o)
    0x080194fc   0x00000024   Code   RO         2461    .text               mc_w.l(init.o)
    0x08019520   0x00000056   Code   RO         2471    .text               mc_w.l(__dczerorl2.o)
    0x08019576   0x00000002   PAD
    0x08019578   0x00000020   Code   RO         2269    i.__0printf         mc_w.l(printfa.o)
    0x08019598   0x00000024   Code   RO         2275    i.__0vsprintf       mc_w.l(printfa.o)
    0x080195bc   0x00000030   Code   RO         2386    i.__ARM_fpclassify  m_wm.l(fpclassify.o)
    0x080195ec   0x00000026   Code   RO         2388    i.__ARM_fpclassifyf  m_wm.l(fpclassifyf.o)
    0x08019612   0x00000006   PAD
    0x08019618   0x00000358   Code   RO         1807    i.__hardfp_acos     m_wm.l(acos.o)
    0x08019970   0x00000118   Code   RO         1821    i.__hardfp_acosf    m_wm.l(acosf.o)
    0x08019a88   0x00000360   Code   RO         1833    i.__hardfp_asin     m_wm.l(asin.o)
    0x08019de8   0x0000012c   Code   RO         1847    i.__hardfp_asinf    m_wm.l(asinf.o)
    0x08019f14   0x00000004   PAD
    0x08019f18   0x000002d8   Code   RO         1859    i.__hardfp_atan     m_wm.l(atan.o)
    0x0801a1f0   0x000001f0   Code   RO         1873    i.__hardfp_atan2    m_wm.l(atan2.o)
    0x0801a3e0   0x00000250   Code   RO         1885    i.__hardfp_atan2f   m_wm.l(atan2f.o)
    0x0801a630   0x000000c8   Code   RO         1903    i.__hardfp_cos      m_wm.l(cos.o)
    0x0801a6f8   0x00000150   Code   RO         1915    i.__hardfp_cosf     m_wm.l(cosf.o)
    0x0801a848   0x00000014   Code   RO         1927    i.__hardfp_fabs     m_wm.l(fabs.o)
    0x0801a85c   0x00000004   PAD
    0x0801a860   0x000003c4   Code   RO         1939    i.__hardfp_log      m_wm.l(log.o)
    0x0801ac24   0x00000004   PAD
    0x0801ac28   0x000000c8   Code   RO         1967    i.__hardfp_sin      m_wm.l(sin.o)
    0x0801acf0   0x00000190   Code   RO         1979    i.__hardfp_sinf     m_wm.l(sinf.o)
    0x0801ae80   0x0000007a   Code   RO         1991    i.__hardfp_sqrt     m_wm.l(sqrt.o)
    0x0801aefa   0x0000003a   Code   RO         2003    i.__hardfp_sqrtf    m_wm.l(sqrtf.o)
    0x0801af34   0x00000004   PAD
    0x0801af38   0x00000438   Code   RO         2407    i.__ieee754_rem_pio2  m_wm.l(rred.o)
    0x0801b370   0x00000170   Code   RO         2369    i.__kernel_cos      m_wm.l(cos_i.o)
    0x0801b4e0   0x000000f8   Code   RO         2404    i.__kernel_poly     m_wm.l(poly.o)
    0x0801b5d8   0x00000130   Code   RO         2415    i.__kernel_sin      m_wm.l(sin_i.o)
    0x0801b708   0x00000030   Code   RO         2372    i.__mathlib_dbl_divzero  m_wm.l(dunder.o)
    0x0801b738   0x00000014   Code   RO         2373    i.__mathlib_dbl_infnan  m_wm.l(dunder.o)
    0x0801b74c   0x00000014   Code   RO         2374    i.__mathlib_dbl_infnan2  m_wm.l(dunder.o)
    0x0801b760   0x00000020   Code   RO         2375    i.__mathlib_dbl_invalid  m_wm.l(dunder.o)
    0x0801b780   0x00000020   Code   RO         2378    i.__mathlib_dbl_underflow  m_wm.l(dunder.o)
    0x0801b7a0   0x00000006   Code   RO         2391    i.__mathlib_flt_infnan  m_wm.l(funder.o)
    0x0801b7a6   0x00000006   Code   RO         2392    i.__mathlib_flt_infnan2  m_wm.l(funder.o)
    0x0801b7ac   0x00000010   Code   RO         2393    i.__mathlib_flt_invalid  m_wm.l(funder.o)
    0x0801b7bc   0x00000010   Code   RO         2396    i.__mathlib_flt_underflow  m_wm.l(funder.o)
    0x0801b7cc   0x00000154   Code   RO         2412    i.__mathlib_rredf2  m_wm.l(rredf.o)
    0x0801b920   0x0000000e   Code   RO         2465    i.__scatterload_copy  mc_w.l(handlers.o)
    0x0801b92e   0x00000002   Code   RO         2466    i.__scatterload_null  mc_w.l(handlers.o)
    0x0801b930   0x0000000e   Code   RO         2467    i.__scatterload_zeroinit  mc_w.l(handlers.o)
    0x0801b93e   0x00000002   PAD
    0x0801b940   0x0000000c   Code   RO         2445    i.__set_errno       mc_w.l(errno.o)
    0x0801b94c   0x00000164   Code   RO         2276    i._fp_digits        mc_w.l(printfa.o)
    0x0801bab0   0x000006dc   Code   RO         2277    i._printf_core      mc_w.l(printfa.o)
    0x0801c18c   0x00000024   Code   RO         2278    i._printf_post_padding  mc_w.l(printfa.o)
    0x0801c1b0   0x0000002e   Code   RO         2279    i._printf_pre_padding  mc_w.l(printfa.o)
    0x0801c1de   0x0000000a   Code   RO         2281    i._sputc            mc_w.l(printfa.o)
    0x0801c1e8   0x00000010   Code   RO         1823    i.acosf             m_wm.l(acosf.o)
    0x0801c1f8   0x00000010   Code   RO         1861    i.atan              m_wm.l(atan.o)
    0x0801c208   0x00000010   Code   RO         1905    i.cos               m_wm.l(cos.o)
    0x0801c218   0x00000010   Code   RO         1917    i.cosf              m_wm.l(cosf.o)
    0x0801c228   0x00000018   Code   RO         1929    i.fabs              m_wm.l(fabs.o)
    0x0801c240   0x00000050   Code   RO         2297    i.free              mc_w.l(malloc.o)
    0x0801c290   0x00000010   Code   RO         1941    i.log               m_wm.l(log.o)
    0x0801c2a0   0x0000006c   Code   RO         2298    i.malloc            mc_w.l(malloc.o)
    0x0801c30c   0x00000010   Code   RO         1981    i.sinf              m_wm.l(sinf.o)
    0x0801c31c   0x0000006e   Code   RO         1993    i.sqrt              m_wm.l(sqrt.o)
    0x0801c38a   0x0000003e   Code   RO         2005    i.sqrtf             m_wm.l(sqrtf.o)
    0x0801c3c8   0x000017c0   Data   RO          405    .constdata          oled.o
    0x0801db88   0x00000010   Data   RO          878    .constdata          nrf24l01.o
    0x0801db98   0x00000268   Data   RO         1234    .constdata          inv_mpu.o
    0x0801de00   0x00000bf6   Data   RO         1363    .constdata          inv_mpu_dmp_motion_driver.o
    0x0801e9f6   0x00000002   PAD
    0x0801e9f8   0x00000400   Data   RO         1483    .constdata          ml_math_func.o
    0x0801edf8   0x0000002f   Data   RO         1513    .constdata          mpl.o
    0x0801ee27   0x00000001   PAD
    0x0801ee28   0x00000050   Data   RO         1810    .constdata          m_wm.l(acos.o)
    0x0801ee78   0x00000050   Data   RO         1836    .constdata          m_wm.l(asin.o)
    0x0801eec8   0x00000098   Data   RO         1862    .constdata          m_wm.l(atan.o)
    0x0801ef60   0x00000038   Data   RO         1942    .constdata          m_wm.l(log.o)
    0x0801ef98   0x00000030   Data   RO         2370    .constdata          m_wm.l(cos_i.o)
    0x0801efc8   0x00000008   Data   RO         2406    .constdata          m_wm.l(qnan.o)
    0x0801efd0   0x000000c8   Data   RO         2409    .constdata          m_wm.l(rred.o)
    0x0801f098   0x00000020   Data   RO         2413    .constdata          m_wm.l(rredf.o)
    0x0801f0b8   0x00000028   Data   RO         2416    .constdata          m_wm.l(sin_i.o)
    0x0801f0e0   0x00000009   Data   RO         1235    .conststring        inv_mpu.o
    0x0801f0e9   0x00000003   PAD
    0x0801f0ec   0x00000044   Data   RO         1430    .conststring        data_builder.o
    0x0801f130   0x00000020   Data   RO         2463    Region$$Table       anon$$obj.o


    Execution Region RW_IRAM1 (Base: 0x20000000, Size: 0x00002ee8, Max: 0x00020000, ABSOLUTE, COMPRESSED[0x00000348])

    Base Addr    Size         Type   Attr      Idx    E Section Name        Object

    0x20000000   0x00000084   Data   RW            5    .data               main.o
    0x20000084   0x00000014   Data   RW          288    .data               system_stm32f4xx.o
    0x20000098   0x00000005   Data   RW          334    .data               key.o
    0x2000009d   0x00000003   PAD
    0x200000a0   0x00000404   Data   RW          406    .data               oled.o
    0x200004a4   0x00000160   Data   RW          433    .data               control.o
    0x20000604   0x00000030   Data   RW          465    .data               encoder.o
    0x20000634   0x00000008   Data   RW          508    .data               motor.o
    0x2000063c   0x00000020   Data   RW          580    .data               timer.o
    0x2000065c   0x00000004   PAD
    0x20000660   0x00000068   Data   RW          604    .data               sonic.o
    0x200006c8   0x00000008   Data   RW          633    .data               filter.o
    0x200006d0   0x000000e0   Data   RW          648    .data               exti.o
    0x200007b0   0x00000050   Data   RW          695    .data               bujin.o
    0x20000800   0x00000001   Data   RW          733    .data               usartdma.o
    0x20000801   0x00000001   PAD
    0x20000802   0x00000009   Data   RW          761    .data               usart2dma.o
    0x2000080b   0x00000001   PAD
    0x2000080c   0x00000012   Data   RW          792    .data               usart3dma.o
    0x2000081e   0x00000002   PAD
    0x20000820   0x0000000e   Data   RW          821    .data               usart4dma.o
    0x2000082e   0x00000002   PAD
    0x20000830   0x00000008   Data   RW          879    .data               nrf24l01.o
    0x20000838   0x00000004   Data   RW          929    .data               delay.o
    0x2000083c   0x0000003e   Data   RW          970    .data               usart.o
    0x2000087a   0x00000010   Data   RW         1072    .data               stm32f4xx_rcc.o
    0x2000088a   0x00000002   PAD
    0x2000088c   0x0000004e   Data   RW         1236    .data               inv_mpu.o
    0x200008da   0x00000002   PAD
    0x200008dc   0x00000014   Data   RW         1454    .data               hal_outputs.o
    0x200008f0   0x00000004   Data   RW         1469    .data               message_layer.o
    0x200008f4   0x00000010   Data   RW         1577    .data               libmpllib.lib(compass_vec_cal.o)
    0x20000904   0x00000004   Data   RW         2441    .data               mc_w.l(mvars.o)
    0x20000908   0x00000004   Data   RW         2442    .data               mc_w.l(mvars.o)
    0x2000090c   0x00000004   Data   RW         2446    .data               mc_w.l(errno.o)
    0x20000910   0x00000400   Zero   RW          404    .bss                oled.o
    0x20000d10   0x00000010   Zero   RW          464    .bss                encoder.o
    0x20000d20   0x000001c0   Zero   RW          532    .bss                pid.o
    0x20000ee0   0x000001d4   Zero   RW          603    .bss                sonic.o
    0x200010b4   0x0000003a   Zero   RW          732    .bss                usartdma.o
    0x200010ee   0x00000002   PAD
    0x200010f0   0x00000064   Zero   RW          760    .bss                usart2dma.o
    0x20001154   0x0000009a   Zero   RW          791    .bss                usart3dma.o
    0x200011ee   0x00000002   PAD
    0x200011f0   0x000000b4   Zero   RW          820    .bss                usart4dma.o
    0x200012a4   0x00000021   Zero   RW          877    .bss                nrf24l01.o
    0x200012c5   0x00000003   PAD
    0x200012c8   0x00000010   Zero   RW         1362    .bss                inv_mpu_dmp_motion_driver.o
    0x200012d8   0x00000028   Zero   RW         1409    .bss                empl_outputs.o
    0x20001300   0x000002d8   Zero   RW         1429    .bss                data_builder.o
    0x200015d8   0x000000c4   Zero   RW         1453    .bss                hal_outputs.o
    0x2000169c   0x00000088   Zero   RW         1534    .bss                results_holder.o
    0x20001724   0x00000054   Zero   RW         1548    .bss                start_manager.o
    0x20001778   0x00000198   Zero   RW         1562    .bss                storage_manager.o
    0x20001910   0x00000460   Zero   RW         1576    .bss                libmpllib.lib(compass_vec_cal.o)
    0x20001d70   0x000002a0   Zero   RW         1666    .bss                libmpllib.lib(fast_no_motion.o)
    0x20002010   0x00000138   Zero   RW         1699    .bss                libmpllib.lib(fusion_9axis.o)
    0x20002148   0x000001c4   Zero   RW         1721    .bss                libmpllib.lib(gyro_tc.o)
    0x2000230c   0x000000b8   Zero   RW         1739    .bss                libmpllib.lib(mag_disturb.o)
    0x200023c4   0x0000006c   Zero   RW         1761    .bss                libmpllib.lib(quaternion_supervisor.o)
    0x20002430   0x000004b8   Zero   RW         1779    .bss                libmpllib.lib(accel_auto_cal.o)
    0x200028e8   0x00000200   Zero   RW         1000    HEAP                startup_stm32f40_41xxx.o
    0x20002ae8   0x00000400   Zero   RW          999    STACK               startup_stm32f40_41xxx.o


==============================================================================

Image component sizes


      Code (inc. data)   RO Data    RW Data    ZI Data      Debug   Object Name

       800         88          0         80          0       2996   bujin.o
      4748        480          0        352          0       6113   control.o
      3212         82         68          0        728      19546   data_builder.o
       260          8          0          4          0       1725   delay.o
      1292         46          0          0         40       8765   empl_outputs.o
      1244         82          0         48         16       4414   encoder.o
      2600        172          0        224          0       7154   exti.o
      1008         20          0          8          0       3961   filter.o
      1856         40          0         20        196       7339   hal_outputs.o
     15572       1296        625         78          0      39403   inv_mpu.o
      3472        142       3062          0         16      15835   inv_mpu_dmp_motion_driver.o
      1668         42          0          5          0       2291   key.o
       252         26          0          0          0       1109   led.o
       796         18          0          0          0       2288   log_stm32.o
      2916        138          0        132          0     314457   main.o
        44          4          0          4          0       1738   message_layer.o
       224         20          0          0          0       2061   misc.o
      4148        114       1024          0          0      17349   ml_math_func.o
      7836        424          0          8          0      11158   motor.o
       240         58         47          0          0       2482   mpl.o
      1072         20          0          0          0       5180   mpu9250.o
       612         14          0          0          0       2036   mpuiic.o
      1800        208         16          8         33       5941   nrf24l01.o
      2380         78       6080       1028       1024       7815   oled.o
       840         48          0          0        448       4011   pid.o
      1396         46          0          0          0       3313   pwm.o
      1032         18          0          0        136      10045   results_holder.o
      1940        106          0        104        468       5746   sonic.o
       272          8          0          0          0       1225   spi.o
       184          6          0          0         84       2594   start_manager.o
        36          8        392          0       1536        912   startup_stm32f40_41xxx.o
       936         32          0          0          0       6637   stm32f4xx_dma.o
       272         10          0          0          0       2527   stm32f4xx_exti.o
       660         44          0          0          0       4401   stm32f4xx_gpio.o
        26          0          0          0          0       1342   stm32f4xx_it.o
      1628         52          0         16          0      13400   stm32f4xx_rcc.o
      1152         36          0          0          0       7149   stm32f4xx_spi.o
       148         12          0          0          0       1965   stm32f4xx_syscfg.o
      3234         60          0          0          0      23256   stm32f4xx_tim.o
      1108         34          0          0          0       8124   stm32f4xx_usart.o
       548          6          0          0        408       4038   storage_manager.o
       528         46          0         20          0       2143   system_stm32f4xx.o
        92          4          0         32          0       1313   timer.o
       208         14          0         62          0       4228   usart.o
      1084         48          0          9        100       3816   usart2dma.o
       512         32          0         18        154       3594   usart3dma.o
      1784        108          0         14        180       6268   usart4dma.o
       944         36          0          1         58       2951   usartdma.o
       196         14          0          0          0        898   xunji.o

    ----------------------------------------------------------------------
     80816       4448      11352       2292       5632     619052   Object Totals
         0          0         32          0          0          0   (incl. Generated)
         4          0          6         17          7          0   (incl. Padding)

    ----------------------------------------------------------------------

      Code (inc. data)   RO Data    RW Data    ZI Data      Debug   Library Member Name

      2796        150          0          0       1208       9108   accel_auto_cal.o
      7772        154          0         16       1120      19264   compass_vec_cal.o
      2548         42          0          0        672      13408   fast_no_motion.o
      1628         54          0          0        312       5308   fusion_9axis.o
      1212         30          0          0        452       5515   gyro_tc.o
      1360         46          0          0        184       7270   mag_disturb.o
      2368        102          0          0        108       5409   quaternion_supervisor.o
       856        118         80          0          0        288   acos.o
       296         46          0          0          0        300   acosf.o
       864         94         80          0          0        280   asin.o
       300         42          0          0          0        176   asinf.o
       744        106        152          0          0        352   atan.o
       496         64          0          0          0        192   atan2.o
       592         90          0          0          0        184   atan2f.o
       216         20          0          0          0        288   cos.o
       368         46         48          0          0        200   cos_i.o
       352         56          0          0          0        260   cosf.o
       152         36          0          0          0        620   dunder.o
        44          0          0          0          0        248   fabs.o
        48          0          0          0          0        124   fpclassify.o
        38          0          0          0          0        116   fpclassifyf.o
        44         12          0          0          0        464   funder.o
       980         92         56          0          0        440   log.o
       248          0          0          0          0        152   poly.o
         0          0          8          0          0          0   qnan.o
      1080        142        200          0          0        188   rred.o
       340         24         32          0          0        160   rredf.o
       200         20          0          0          0        164   sin.o
       304         24         40          0          0        208   sin_i.o
       416         56          0          0          0        336   sinf.o
       232          0          0          0          0        296   sqrt.o
       120          0          0          0          0        272   sqrtf.o
        86          0          0          0          0          0   __dczerorl2.o
         0          0          0          0          0          0   entry.o
         0          0          0          0          0          0   entry10a.o
         0          0          0          0          0          0   entry11a.o
         8          4          0          0          0          0   entry2.o
         4          0          0          0          0          0   entry5.o
         0          0          0          0          0          0   entry7b.o
         0          0          0          0          0          0   entry8b.o
         8          4          0          0          0          0   entry9a.o
        12          6          0          4          0         68   errno.o
        30          0          0          0          0          0   handlers.o
        36          8          0          0          0         68   init.o
         0          0          0          0          0          0   iusefp.o
        98          0          0          0          0         84   ldiv.o
        30          0          0          0          0         68   llshl.o
        36          0          0          0          0         68   llsshr.o
        32          0          0          0          0         68   llushr.o
       188         20          0          0          0        160   malloc.o
        26          0          0          0          0         80   memcmp.o
        64          0          0          0          0         76   memmovea.o
        36          0          0          0          0        108   memseta.o
         0          0          0          8          0          0   mvars.o
      2272         96          0          0          0        592   printfa.o
        44          0          0          0          0         80   uidiv.o
        98          0          0          0          0         92   uldiv.o
        48          0          0          0          0         68   cdcmple.o
        48          0          0          0          0         68   cdrcmple.o
        20          0          0          0          0         68   cfcmple.o
        20          0          0          0          0         68   cfrcmple.o
        56          0          0          0          0         88   d2f.o
       334          0          0          0          0        148   dadd.o
       222          0          0          0          0        100   ddiv.o
       186          0          0          0          0        176   depilogue.o
        62          0          0          0          0         80   dfixi.o
        48          0          0          0          0         68   dfixul.o
        34          0          0          0          0         76   dflti.o
        26          0          0          0          0         76   dfltui.o
       228          0          0          0          0         96   dmul.o
        46          0          0          0          0         80   dscalb.o
       162          0          0          0          0        100   dsqrt.o
        38          0          0          0          0         68   f2d.o
       176          0          0          0          0        140   fadd.o
       124          0          0          0          0         88   fdiv.o
       110          0          0          0          0        168   fepilogue.o
        50          0          0          0          0         68   ffixi.o
        66          0          0          0          0         76   ffixl.o
        18          0          0          0          0         68   fflti.o
        44          0          0          0          0         92   ffltl.o
        10          0          0          0          0         68   ffltui.o
       100          0          0          0          0         76   fmul.o
        24          0          0          0          0         68   fscalb.o

    ----------------------------------------------------------------------
     34448       1812        696         28       4056      75542   Library Totals
        26          8          0          0          0          0   (incl. Padding)

    ----------------------------------------------------------------------

      Code (inc. data)   RO Data    RW Data    ZI Data      Debug   Library Name

     19684        578          0         16       4056      65282   libmpllib.lib
      9330       1088        696          0          0       6308   m_wm.l
      3108        138          0         12          0       1612   mc_w.l
      2300          0          0          0          0       2340   mf_w.l

    ----------------------------------------------------------------------
     34448       1812        696         28       4056      75542   Library Totals

    ----------------------------------------------------------------------

==============================================================================


      Code (inc. data)   RO Data    RW Data    ZI Data      Debug   

    115264       6260      12048       2320       9688     677550   Grand Totals
    115264       6260      12048        840       9688     677550   ELF Image Totals (compressed)
    115264       6260      12048        840          0          0   ROM Totals

==============================================================================

    Total RO  Size (Code + RO Data)               127312 ( 124.33kB)
    Total RW  Size (RW Data + ZI Data)             12008 (  11.73kB)
    Total ROM Size (Code + RO Data + RW Data)     128152 ( 125.15kB)

==============================================================================

